---
triple:          'arm64-apple-darwin'
binary-path:     main
relocations:
  - { offsetInCU: 0x4C, offset: 0x4C, size: 0x8, addend: 0x0, symName: __ZN5Utils14INVALID_OPTIONE, symObjAddr: 0x47F88, symBinAddr: 0x100014000, symSize: 0x0 }
  - { offsetInCU: 0x5136, offset: 0x5136, size: 0x8, addend: 0x0, symName: __ZNSt3__111__introsortINS_17_ClassicAlgPolicyERZN5Lista12populateListEvEUlRK7PersonaS5_E_PS3_Lb0EEEvT1_S9_T0_NS_15iterator_traitsIS9_E15difference_typeEb, symObjAddr: 0x7664, symBinAddr: 0x1000091C0, symSize: 0x470 }
  - { offsetInCU: 0x5261, offset: 0x5261, size: 0x8, addend: 0x0, symName: __ZNSt3__126__insertion_sort_unguardedB8ue170006INS_17_ClassicAlgPolicyERZN5Lista12populateListEvEUlRK7PersonaS5_E_PS3_EEvT1_S9_T0_, symObjAddr: 0x7E68, symBinAddr: 0x1000099C4, symSize: 0x198 }
  - { offsetInCU: 0x533A, offset: 0x533A, size: 0x8, addend: 0x0, symName: __ZNSt3__111__sift_downB8ue170006INS_17_ClassicAlgPolicyERZN5Lista12populateListEvEUlRK7PersonaS5_E_PS3_EEvT1_OT0_NS_15iterator_traitsIS9_E15difference_typeES9_, symObjAddr: 0x95EC, symBinAddr: 0x10000B148, symSize: 0x2AC }
  - { offsetInCU: 0x53E7, offset: 0x53E7, size: 0x8, addend: 0x0, symName: __ZNSt3__117__floyd_sift_downB8ue170006INS_17_ClassicAlgPolicyERZN5Lista12populateListEvEUlRK7PersonaS5_E_PS3_EET1_S9_OT0_NS_15iterator_traitsIS9_E15difference_typeE, symObjAddr: 0x9A98, symBinAddr: 0x10000B5F4, symSize: 0x108 }
  - { offsetInCU: 0x547F, offset: 0x547F, size: 0x8, addend: 0x0, symName: __ZNSt3__131__partition_with_equals_on_leftB8ue170006INS_17_ClassicAlgPolicyEP7PersonaRZN5Lista12populateListEvEUlRKS2_S6_E_EET0_S9_S9_T1_, symObjAddr: 0x820C, symBinAddr: 0x100009D68, symSize: 0x2A0 }
  - { offsetInCU: 0x553C, offset: 0x553C, size: 0x8, addend: 0x0, symName: __ZNSt3__118__bitset_partitionB8ue170006INS_17_ClassicAlgPolicyEP7PersonaRZN5Lista12populateListEvEUlRKS2_S6_E_EENS_4pairIT0_bEESA_SA_T1_, symObjAddr: 0x84AC, symBinAddr: 0x10000A008, symSize: 0x3BC }
  - { offsetInCU: 0x563A, offset: 0x563A, size: 0x8, addend: 0x0, symName: __ZNSt3__124__swap_bitmap_pos_withinB8ue170006INS_17_ClassicAlgPolicyEP7PersonaEEvRT0_S5_RyS6_, symObjAddr: 0xA274, symBinAddr: 0x10000BDD0, symSize: 0x1E8 }
  - { offsetInCU: 0x5707, offset: 0x5707, size: 0x8, addend: 0x0, symName: __ZNSt3__132__partition_with_equals_on_rightB8ue170006INS_17_ClassicAlgPolicyEP7PersonaRZN5Lista12populateListEvEUlRKS2_S6_E_EENS_4pairIT0_bEESA_SA_T1_, symObjAddr: 0x8868, symBinAddr: 0x10000A3C4, symSize: 0x2A4 }
  - { offsetInCU: 0x57D3, offset: 0x57D3, size: 0x8, addend: 0x0, symName: __ZNSt3__127__insertion_sort_incompleteB8ue170006INS_17_ClassicAlgPolicyERZN5Lista12populateListEvEUlRK7PersonaS5_E_PS3_EEbT1_S9_T0_, symObjAddr: 0x8B0C, symBinAddr: 0x10000A668, symSize: 0x374 }
  - { offsetInCU: 0x58B9, offset: 0x58B9, size: 0x8, addend: 0x0, symName: __ZNSt3__124__put_character_sequenceB8ue170006IcNS_11char_traitsIcEEEERNS_13basic_ostreamIT_T0_EES7_PKS4_m, symObjAddr: 0xB304, symBinAddr: 0x10000CE60, symSize: 0x1EC }
  - { offsetInCU: 0x773E, offset: 0x773E, size: 0x8, addend: 0x0, symName: __ZNSt3__1lsB8ue170006IcNS_11char_traitsIcEENS_9allocatorIcEEEERNS_13basic_ostreamIT_T0_EES9_RKNS_12basic_stringIS6_S7_T1_EE, symObjAddr: 0x158, symBinAddr: 0x100001CB4, symSize: 0x4C }
  - { offsetInCU: 0x7796, offset: 0x7796, size: 0x8, addend: 0x0, symName: __ZNSt3__1lsB8ue170006INS_11char_traitsIcEEEERNS_13basic_ostreamIcT_EES6_PKc, symObjAddr: 0x1CC, symBinAddr: 0x100001D28, symSize: 0x48 }
  - { offsetInCU: 0x79DD, offset: 0x79DD, size: 0x8, addend: 0x0, symName: __ZNSt3__17getlineB8ue170006IcNS_11char_traitsIcEENS_9allocatorIcEEEERNS_13basic_istreamIT_T0_EES9_RNS_12basic_stringIS6_S7_T1_EE, symObjAddr: 0x39C, symBinAddr: 0x100001EF8, symSize: 0x5C }
  - { offsetInCU: 0x7A35, offset: 0x7A35, size: 0x8, addend: 0x0, symName: __ZNSt3__14endlB8ue170006IcNS_11char_traitsIcEEEERNS_13basic_ostreamIT_T0_EES7_, symObjAddr: 0x974, symBinAddr: 0x1000024D0, symSize: 0x58 }
  - { offsetInCU: 0x7A75, offset: 0x7A75, size: 0x8, addend: 0x0, symName: __ZNSt3__1lsB8ue170006IcNS_11char_traitsIcEEEERNS_13basic_ostreamIT_T0_EES7_RKNS_8__iom_t6E, symObjAddr: 0x172C, symBinAddr: 0x100003288, symSize: 0x40 }
  - { offsetInCU: 0x7AC4, offset: 0x7AC4, size: 0x8, addend: 0x0, symName: __ZNSt3__1lsB8ue170006INS_11char_traitsIcEEEERNS_13basic_ostreamIcT_EES6_RKNS_8__iom_t4IcEE, symObjAddr: 0x176C, symBinAddr: 0x1000032C8, symSize: 0x40 }
  - { offsetInCU: 0x7B07, offset: 0x7B07, size: 0x8, addend: 0x0, symName: __ZNSt3__15rightB8ue170006ERNS_8ios_baseE, symObjAddr: 0x17EC, symBinAddr: 0x100003348, symSize: 0x30 }
  - { offsetInCU: 0x7B35, offset: 0x7B35, size: 0x8, addend: 0x0, symName: __ZNSt3__14setwB8ue170006Ei, symObjAddr: 0x181C, symBinAddr: 0x100003378, symSize: 0x2C }
  - { offsetInCU: 0x7B63, offset: 0x7B63, size: 0x8, addend: 0x0, symName: __ZNSt3__17setfillB8ue170006IcEENS_8__iom_t4IT_EES2_, symObjAddr: 0x1848, symBinAddr: 0x1000033A4, symSize: 0x2C }
  - { offsetInCU: 0x7B98, offset: 0x7B98, size: 0x8, addend: 0x0, symName: __ZNSt3__14leftB8ue170006ERNS_8ios_baseE, symObjAddr: 0x2270, symBinAddr: 0x100003DCC, symSize: 0x30 }
  - { offsetInCU: 0x7BC6, offset: 0x7BC6, size: 0x8, addend: 0x0, symName: __ZNSt3__1rsB8ue170006IcNS_11char_traitsIcEENS_9allocatorIcEEEERNS_13basic_istreamIT_T0_EES9_RNS_12basic_stringIS6_S7_T1_EE, symObjAddr: 0x3E0C, symBinAddr: 0x100005968, symSize: 0x308 }
  - { offsetInCU: 0x7C93, offset: 0x7C93, size: 0x8, addend: 0x0, symName: __ZNSt3__1neB8ue170006IPKcEEbRKNS_11__wrap_iterIT_EES7_, symObjAddr: 0x439C, symBinAddr: 0x100005EF8, symSize: 0x34 }
  - { offsetInCU: 0x7D09, offset: 0x7D09, size: 0x8, addend: 0x0, symName: __ZNSt3__1eqB8ue170006IPKcEEbRKNS_11__wrap_iterIT_EES7_, symObjAddr: 0x4610, symBinAddr: 0x10000616C, symSize: 0x48 }
  - { offsetInCU: 0x7D4C, offset: 0x7D4C, size: 0x8, addend: 0x0, symName: __ZNSt3__16all_ofB8ue170006INS_11__wrap_iterIPKcEEPFiiEEEbT_S7_T0_, symObjAddr: 0x47C8, symBinAddr: 0x100006324, symSize: 0xA8 }
  - { offsetInCU: 0x7DA6, offset: 0x7DA6, size: 0x8, addend: 0x0, symName: __ZNSt3__14sortB8ue170006INS_11__wrap_iterIP7PersonaEEZN5Lista12populateListEvEUlRKS2_S7_E_EEvT_S9_T0_, symObjAddr: 0x54DC, symBinAddr: 0x100007038, symSize: 0x40 }
  - { offsetInCU: 0x7E00, offset: 0x7E00, size: 0x8, addend: 0x0, symName: __ZNSt3__1neB8ue170006IP7PersonaEEbRKNS_11__wrap_iterIT_EES7_, symObjAddr: 0x557C, symBinAddr: 0x1000070D8, symSize: 0x34 }
  - { offsetInCU: 0x7E43, offset: 0x7E43, size: 0x8, addend: 0x0, symName: __ZNSt3__112__to_addressB8ue170006I7PersonaEEPT_S3_, symObjAddr: 0x5AB4, symBinAddr: 0x100007610, symSize: 0x14 }
  - { offsetInCU: 0x7E78, offset: 0x7E78, size: 0x8, addend: 0x0, symName: __ZNSt3__13maxB8ue170006ImEERKT_S3_S3_, symObjAddr: 0x5EE0, symBinAddr: 0x100007A3C, symSize: 0x2C }
  - { offsetInCU: 0x7EBB, offset: 0x7EBB, size: 0x8, addend: 0x0, symName: __ZNSt3__13minB8ue170006ImEERKT_S3_S3_, symObjAddr: 0x5F0C, symBinAddr: 0x100007A68, symSize: 0x2C }
  - { offsetInCU: 0x7EFE, offset: 0x7EFE, size: 0x8, addend: 0x0, symName: __ZNSt3__13minB8ue170006ImNS_6__lessIvvEEEERKT_S5_S5_T0_, symObjAddr: 0x5F84, symBinAddr: 0x100007AE0, symSize: 0x54 }
  - { offsetInCU: 0x7F9D, offset: 0x7F9D, size: 0x8, addend: 0x0, symName: __ZNSt3__120__throw_length_errorB8ue170006EPKc, symObjAddr: 0x6064, symBinAddr: 0x100007BC0, symSize: 0x64 }
  - { offsetInCU: 0x7FC7, offset: 0x7FC7, size: 0x8, addend: 0x0, symName: __ZNSt3__13maxB8ue170006ImNS_6__lessIvvEEEERKT_S5_S5_T0_, symObjAddr: 0x61A8, symBinAddr: 0x100007D04, symSize: 0x54 }
  - { offsetInCU: 0x8021, offset: 0x8021, size: 0x8, addend: 0x0, symName: __ZNSt3__119__allocate_at_leastB8ue170006INS_9allocatorI7PersonaEEEENS_19__allocation_resultINS_16allocator_traitsIT_E7pointerEEERS6_m, symObjAddr: 0x6318, symBinAddr: 0x100007E74, symSize: 0x40 }
  - { offsetInCU: 0x8064, offset: 0x8064, size: 0x8, addend: 0x0, symName: __ZNSt3__117__libcpp_allocateB8ue170006Emm, symObjAddr: 0x64A0, symBinAddr: 0x100007FFC, symSize: 0x28 }
  - { offsetInCU: 0x80A1, offset: 0x80A1, size: 0x8, addend: 0x0, symName: __ZNSt3__121__libcpp_operator_newB8ue170006IJmEEEPvDpT_, symObjAddr: 0x64C8, symBinAddr: 0x100008024, symSize: 0x24 }
  - { offsetInCU: 0x80DA, offset: 0x80DA, size: 0x8, addend: 0x0, symName: __ZNSt3__142__uninitialized_allocator_move_if_noexceptB8ue170006INS_9allocatorI7PersonaEENS_16reverse_iteratorIPS2_EES6_S6_EET2_RT_T0_T1_S7_, symObjAddr: 0x6624, symBinAddr: 0x100008180, symSize: 0x12C }
  - { offsetInCU: 0x817A, offset: 0x817A, size: 0x8, addend: 0x0, symName: __ZNSt3__14swapB8ue170006IP7PersonaEENS_9enable_ifIXaasr21is_move_constructibleIT_EE5valuesr18is_move_assignableIS4_EE5valueEvE4typeERS4_S7_, symObjAddr: 0x679C, symBinAddr: 0x1000082F8, symSize: 0x3C }
  - { offsetInCU: 0x81CB, offset: 0x81CB, size: 0x8, addend: 0x0, symName: __ZNSt3__122__make_exception_guardB8ue170006INS_29_AllocatorDestroyRangeReverseINS_9allocatorI7PersonaEENS_16reverse_iteratorIPS3_EEEEEENS_28__exception_guard_exceptionsIT_EESA_, symObjAddr: 0x68E8, symBinAddr: 0x100008444, symSize: 0x4C }
  - { offsetInCU: 0x8201, offset: 0x8201, size: 0x8, addend: 0x0, symName: __ZNSt3__1neB8ue170006IP7PersonaS2_EEbRKNS_16reverse_iteratorIT_EERKNS3_IT0_EE, symObjAddr: 0x6978, symBinAddr: 0x1000084D4, symSize: 0x48 }
  - { offsetInCU: 0x824D, offset: 0x824D, size: 0x8, addend: 0x0, symName: __ZNSt3__112__to_addressB8ue170006INS_16reverse_iteratorIP7PersonaEEvEEu7__decayIDTclsr19__to_address_helperIT_EE6__callclsr3stdE7declvalIRKS5_EEEEES7_, symObjAddr: 0x69F4, symBinAddr: 0x100008550, symSize: 0x24 }
  - { offsetInCU: 0x82AC, offset: 0x82AC, size: 0x8, addend: 0x0, symName: __ZNSt3__119__allocator_destroyB8ue170006INS_9allocatorI7PersonaEENS_16reverse_iteratorINS4_IPS2_EEEES7_EEvRT_T0_T1_, symObjAddr: 0x6EF0, symBinAddr: 0x100008A4C, symSize: 0x70 }
  - { offsetInCU: 0x8311, offset: 0x8311, size: 0x8, addend: 0x0, symName: __ZNSt3__1neB8ue170006INS_16reverse_iteratorIP7PersonaEES4_EEbRKNS1_IT_EERKNS1_IT0_EE, symObjAddr: 0x6F9C, symBinAddr: 0x100008AF8, symSize: 0x60 }
  - { offsetInCU: 0x835D, offset: 0x835D, size: 0x8, addend: 0x0, symName: __ZNSt3__112__to_addressB8ue170006INS_16reverse_iteratorINS1_IP7PersonaEEEEvEEu7__decayIDTclsr19__to_address_helperIT_EE6__callclsr3stdE7declvalIRKS6_EEEEES8_, symObjAddr: 0x7028, symBinAddr: 0x100008B84, symSize: 0x24 }
  - { offsetInCU: 0x83BC, offset: 0x83BC, size: 0x8, addend: 0x0, symName: __ZNSt3__119__libcpp_deallocateB8ue170006EPvmm, symObjAddr: 0x73E4, symBinAddr: 0x100008F40, symSize: 0x30 }
  - { offsetInCU: 0x8404, offset: 0x8404, size: 0x8, addend: 0x0, symName: __ZNSt3__127__do_deallocate_handle_sizeB8ue170006IJEEEvPvmDpT_, symObjAddr: 0x7414, symBinAddr: 0x100008F70, symSize: 0x28 }
  - { offsetInCU: 0x8442, offset: 0x8442, size: 0x8, addend: 0x0, symName: __ZNSt3__124__libcpp_operator_deleteB8ue170006IJPvEEEvDpT_, symObjAddr: 0x743C, symBinAddr: 0x100008F98, symSize: 0x24 }
  - { offsetInCU: 0x8477, offset: 0x8477, size: 0x8, addend: 0x0, symName: __ZNSt3__111__sort_implB8ue170006INS_17_ClassicAlgPolicyENS_11__wrap_iterIP7PersonaEEZN5Lista12populateListEvEUlRKS3_S8_E_EEvT0_SA_RT1_, symObjAddr: 0x74AC, symBinAddr: 0x100009008, symSize: 0xA8 }
  - { offsetInCU: 0x84DA, offset: 0x84DA, size: 0x8, addend: 0x0, symName: __ZNSt3__123__debug_randomize_rangeB8ue170006INS_17_ClassicAlgPolicyENS_11__wrap_iterIP7PersonaEES5_EEvT0_T1_, symObjAddr: 0x7554, symBinAddr: 0x1000090B0, symSize: 0x14 }
  - { offsetInCU: 0x852B, offset: 0x852B, size: 0x8, addend: 0x0, symName: __ZNSt3__115__sort_dispatchB8ue170006INS_17_ClassicAlgPolicyEP7PersonaZN5Lista12populateListEvEUlRKS2_S6_E_EEvT0_S8_RT1_, symObjAddr: 0x7568, symBinAddr: 0x1000090C4, symSize: 0x64 }
  - { offsetInCU: 0x85A9, offset: 0x85A9, size: 0x8, addend: 0x0, symName: __ZNSt3__113__unwrap_iterB8ue170006INS_11__wrap_iterIP7PersonaEENS_18__unwrap_iter_implIS4_Lb1EEELi0EEEDTclsrT0_8__unwrapclsr3stdE7declvalIT_EEEES8_, symObjAddr: 0x75CC, symBinAddr: 0x100009128, symSize: 0x2C }
  - { offsetInCU: 0x85ED, offset: 0x85ED, size: 0x8, addend: 0x0, symName: __ZNSt3__135__check_strict_weak_ordering_sortedB8ue170006IP7PersonaZN5Lista12populateListEvEUlRKS1_S5_E_EEvT_S7_RT0_, symObjAddr: 0x75F8, symBinAddr: 0x100009154, symSize: 0x18 }
  - { offsetInCU: 0x8643, offset: 0x8643, size: 0x8, addend: 0x0, symName: __ZNSt3__17__log2iB8ue170006IlEET_S1_, symObjAddr: 0x7610, symBinAddr: 0x10000916C, symSize: 0x54 }
  - { offsetInCU: 0x867A, offset: 0x867A, size: 0x8, addend: 0x0, symName: __ZNSt3__112__libcpp_clzB8ue170006Em, symObjAddr: 0x7AEC, symBinAddr: 0x100009648, symSize: 0x1C }
  - { offsetInCU: 0x8790, offset: 0x8790, size: 0x8, addend: 0x0, symName: __ZNSt3__124__sort3_maybe_branchlessB8ue170006INS_17_ClassicAlgPolicyERZN5Lista12populateListEvEUlRK7PersonaS5_E_PS3_EENS_9enable_ifIXntsr21__use_branchless_sortIT0_T1_EE5valueEvE4typeESB_SB_SB_SA_, symObjAddr: 0x7BD0, symBinAddr: 0x10000972C, symSize: 0x3C }
  - { offsetInCU: 0x8801, offset: 0x8801, size: 0x8, addend: 0x0, symName: __ZNSt3__124__sort4_maybe_branchlessB8ue170006INS_17_ClassicAlgPolicyERZN5Lista12populateListEvEUlRK7PersonaS5_E_PS3_EENS_9enable_ifIXntsr21__use_branchless_sortIT0_T1_EE5valueEvE4typeESB_SB_SB_SB_SA_, symObjAddr: 0x7C0C, symBinAddr: 0x100009768, symSize: 0x44 }
  - { offsetInCU: 0x8880, offset: 0x8880, size: 0x8, addend: 0x0, symName: __ZNSt3__124__sort5_maybe_branchlessB8ue170006INS_17_ClassicAlgPolicyERZN5Lista12populateListEvEUlRK7PersonaS5_E_PS3_EENS_9enable_ifIXntsr21__use_branchless_sortIT0_T1_EE5valueEvE4typeESB_SB_SB_SB_SB_SA_, symObjAddr: 0x7C50, symBinAddr: 0x1000097AC, symSize: 0x4C }
  - { offsetInCU: 0x890D, offset: 0x890D, size: 0x8, addend: 0x0, symName: __ZNSt3__116__insertion_sortB8ue170006INS_17_ClassicAlgPolicyERZN5Lista12populateListEvEUlRK7PersonaS5_E_PS3_EEvT1_S9_T0_, symObjAddr: 0x7C9C, symBinAddr: 0x1000097F8, symSize: 0x1CC }
  - { offsetInCU: 0x89C0, offset: 0x89C0, size: 0x8, addend: 0x0, symName: __ZNSt3__114__partial_sortB8ue170006INS_17_ClassicAlgPolicyERZN5Lista12populateListEvEUlRK7PersonaS5_E_PS3_S8_EET1_S9_S9_T2_RT0_, symObjAddr: 0x8000, symBinAddr: 0x100009B5C, symSize: 0x94 }
  - { offsetInCU: 0x8A48, offset: 0x8A48, size: 0x8, addend: 0x0, symName: __ZNSt3__17__sort3B8ue170006INS_17_ClassicAlgPolicyERZN5Lista12populateListEvEUlRK7PersonaS5_E_PS3_EEjT1_S9_S9_T0_, symObjAddr: 0x8094, symBinAddr: 0x100009BF0, symSize: 0x144 }
  - { offsetInCU: 0x8AC7, offset: 0x8AC7, size: 0x8, addend: 0x0, symName: __ZNSt3__1ltB8ue170006IcNS_11char_traitsIcEENS_9allocatorIcEEEEbRKNS_12basic_stringIT_T0_T1_EESB_, symObjAddr: 0x8E98, symBinAddr: 0x10000A9F4, symSize: 0x38 }
  - { offsetInCU: 0x8B1F, offset: 0x8B1F, size: 0x8, addend: 0x0, symName: __ZNSt3__112__to_addressB8ue170006IKcEEPT_S3_, symObjAddr: 0x9124, symBinAddr: 0x10000AC80, symSize: 0x14 }
  - { offsetInCU: 0x8B54, offset: 0x8B54, size: 0x8, addend: 0x0, symName: __ZNSt3__19iter_swapB8ue170006IP7PersonaS2_EEvT_T0_, symObjAddr: 0x91A0, symBinAddr: 0x10000ACFC, symSize: 0x2C }
  - { offsetInCU: 0x8B9C, offset: 0x8B9C, size: 0x8, addend: 0x0, symName: __ZNSt3__14swapB8ue170006I7PersonaEENS_9enable_ifIXaasr21is_move_constructibleIT_EE5valuesr18is_move_assignableIS3_EE5valueEvE4typeERS3_S6_, symObjAddr: 0x91CC, symBinAddr: 0x10000AD28, symSize: 0x58 }
  - { offsetInCU: 0x8BED, offset: 0x8BED, size: 0x8, addend: 0x0, symName: __ZNSt3__17__sort4B8ue170006INS_17_ClassicAlgPolicyERZN5Lista12populateListEvEUlRK7PersonaS5_E_PS3_EEvT1_S9_S9_S9_T0_, symObjAddr: 0x9224, symBinAddr: 0x10000AD80, symSize: 0xB8 }
  - { offsetInCU: 0x8C68, offset: 0x8C68, size: 0x8, addend: 0x0, symName: __ZNSt3__17__sort5B8ue170006INS_17_ClassicAlgPolicyERZN5Lista12populateListEvEUlRK7PersonaS5_E_PS3_EEvT1_S9_S9_S9_S9_T0_, symObjAddr: 0x92DC, symBinAddr: 0x10000AE38, symSize: 0xE8 }
  - { offsetInCU: 0x8D15, offset: 0x8D15, size: 0x8, addend: 0x0, symName: __ZNSt3__123__debug_randomize_rangeB8ue170006INS_17_ClassicAlgPolicyEP7PersonaS3_EEvT0_T1_, symObjAddr: 0x9408, symBinAddr: 0x10000AF64, symSize: 0x14 }
  - { offsetInCU: 0x8D66, offset: 0x8D66, size: 0x8, addend: 0x0, symName: __ZNSt3__119__partial_sort_implB8ue170006INS_17_ClassicAlgPolicyERZN5Lista12populateListEvEUlRK7PersonaS5_E_PS3_S8_EET1_S9_S9_T2_OT0_, symObjAddr: 0x941C, symBinAddr: 0x10000AF78, symSize: 0x110 }
  - { offsetInCU: 0x8DFC, offset: 0x8DFC, size: 0x8, addend: 0x0, symName: __ZNSt3__111__make_heapB8ue170006INS_17_ClassicAlgPolicyERZN5Lista12populateListEvEUlRK7PersonaS5_E_PS3_EEvT1_S9_OT0_, symObjAddr: 0x952C, symBinAddr: 0x10000B088, symSize: 0xC0 }
  - { offsetInCU: 0x8E9E, offset: 0x8E9E, size: 0x8, addend: 0x0, symName: __ZNSt3__111__sort_heapB8ue170006INS_17_ClassicAlgPolicyERZN5Lista12populateListEvEUlRK7PersonaS5_E_PS3_EEvT1_S9_OT0_, symObjAddr: 0x9898, symBinAddr: 0x10000B3F4, symSize: 0xA8 }
  - { offsetInCU: 0x8F40, offset: 0x8F40, size: 0x8, addend: 0x0, symName: __ZNSt3__110__pop_heapB8ue170006INS_17_ClassicAlgPolicyEZN5Lista12populateListEvEUlRK7PersonaS5_E_PS3_EEvT1_S8_RT0_NS_15iterator_traitsIS8_E15difference_typeE, symObjAddr: 0x9940, symBinAddr: 0x10000B49C, symSize: 0x158 }
  - { offsetInCU: 0x8FE8, offset: 0x8FE8, size: 0x8, addend: 0x0, symName: __ZNSt3__19__sift_upB8ue170006INS_17_ClassicAlgPolicyERZN5Lista12populateListEvEUlRK7PersonaS5_E_PS3_EEvT1_S9_OT0_NS_15iterator_traitsIS9_E15difference_typeE, symObjAddr: 0x9BA0, symBinAddr: 0x10000B6FC, symSize: 0x198 }
  - { offsetInCU: 0x9088, offset: 0x9088, size: 0x8, addend: 0x0, symName: __ZNSt3__122__populate_left_bitsetB8ue170006IRZN5Lista12populateListEvEUlRK7PersonaS4_E_PS2_S2_EEvT0_T_RT1_Ry, symObjAddr: 0x9D38, symBinAddr: 0x10000B894, symSize: 0xA8 }
  - { offsetInCU: 0x9143, offset: 0x9143, size: 0x8, addend: 0x0, symName: __ZNSt3__123__populate_right_bitsetB8ue170006IRZN5Lista12populateListEvEUlRK7PersonaS4_E_PS2_S2_EEvT0_T_RT1_Ry, symObjAddr: 0x9DE0, symBinAddr: 0x10000B93C, symSize: 0xA0 }
  - { offsetInCU: 0x91FE, offset: 0x91FE, size: 0x8, addend: 0x0, symName: __ZNSt3__117__swap_bitmap_posB8ue170006INS_17_ClassicAlgPolicyEP7PersonaEEvT0_S4_RyS5_, symObjAddr: 0x9E80, symBinAddr: 0x10000B9DC, symSize: 0x104 }
  - { offsetInCU: 0x929F, offset: 0x929F, size: 0x8, addend: 0x0, symName: __ZNSt3__133__bitset_partition_partial_blocksB8ue170006INS_17_ClassicAlgPolicyERZN5Lista12populateListEvEUlRK7PersonaS5_E_PS3_S3_EEvRT1_SA_T0_RT2_RySE_, symObjAddr: 0x9F84, symBinAddr: 0x10000BAE0, symSize: 0x2F0 }
  - { offsetInCU: 0x9420, offset: 0x9420, size: 0x8, addend: 0x0, symName: __ZNSt3__19make_pairB8ue170006IRP7PersonaRbEENS_4pairINS_18__unwrap_ref_decayIT_E4typeENS6_IT0_E4typeEEEOS7_OSA_, symObjAddr: 0xA45C, symBinAddr: 0x10000BFB8, symSize: 0x38 }
  - { offsetInCU: 0x946F, offset: 0x946F, size: 0x8, addend: 0x0, symName: __ZNSt3__112__libcpp_ctzB8ue170006Ey, symObjAddr: 0xA494, symBinAddr: 0x10000BFF0, symSize: 0x20 }
  - { offsetInCU: 0x949B, offset: 0x949B, size: 0x8, addend: 0x0, symName: __ZNSt3__113__libcpp_blsrB8ue170006Ey, symObjAddr: 0xA4B4, symBinAddr: 0x10000C010, symSize: 0x2C }
  - { offsetInCU: 0x94C7, offset: 0x94C7, size: 0x8, addend: 0x0, symName: __ZNSt3__112__libcpp_clzB8ue170006Ey, symObjAddr: 0xA514, symBinAddr: 0x10000C070, symSize: 0x1C }
  - { offsetInCU: 0x961A, offset: 0x961A, size: 0x8, addend: 0x0, symName: __ZNSt3__112__to_addressB8ue170006INS_11__wrap_iterIP7PersonaEEvEEu7__decayIDTclsr19__to_address_helperIT_EE6__callclsr3stdE7declvalIRKS5_EEEEES7_, symObjAddr: 0xA5CC, symBinAddr: 0x10000C128, symSize: 0x24 }
  - { offsetInCU: 0x96F5, offset: 0x96F5, size: 0x8, addend: 0x0, symName: __ZNSt3__1eqB8ue170006IP7PersonaEEbRKNS_11__wrap_iterIT_EES7_, symObjAddr: 0xA6E8, symBinAddr: 0x10000C244, symSize: 0x48 }
  - { offsetInCU: 0x9738, offset: 0x9738, size: 0x8, addend: 0x0, symName: __ZNSt3__1geB8ue170006IcNS_11char_traitsIcEENS_9allocatorIcEEEEbRKNS_12basic_stringIT_T0_T1_EESB_, symObjAddr: 0xAB7C, symBinAddr: 0x10000C6D8, symSize: 0x34 }
  - { offsetInCU: 0x9790, offset: 0x9790, size: 0x8, addend: 0x0, symName: __ZNSt3__1eqB8ue170006INS_9allocatorIcEEEEbRKNS_12basic_stringIcNS_11char_traitsIcEET_EES9_, symObjAddr: 0xAFD0, symBinAddr: 0x10000CB2C, symSize: 0x148 }
  - { offsetInCU: 0x9803, offset: 0x9803, size: 0x8, addend: 0x0, symName: __ZNSt3__118__constexpr_strlenB8ue170006EPKc, symObjAddr: 0xB2E0, symBinAddr: 0x10000CE3C, symSize: 0x24 }
  - { offsetInCU: 0x982F, offset: 0x982F, size: 0x8, addend: 0x0, symName: __ZNSt3__116__pad_and_outputB8ue170006IcNS_11char_traitsIcEEEENS_19ostreambuf_iteratorIT_T0_EES6_PKS4_S8_S8_RNS_8ios_baseES4_, symObjAddr: 0xB50C, symBinAddr: 0x10000D068, symSize: 0x240 }
  - { offsetInCU: 0x98FE, offset: 0x98FE, size: 0x8, addend: 0x0, symName: __ZNSt3__19use_facetB8ue170006INS_5ctypeIcEEEERKT_RKNS_6localeE, symObjAddr: 0xBA98, symBinAddr: 0x10000D5F4, symSize: 0x2C }
  - { offsetInCU: 0x9CDC, offset: 0x9CDC, size: 0x8, addend: 0x0, symName: __ZNSt3__17getlineB8ue170006IcNS_11char_traitsIcEENS_9allocatorIcEEEERNS_13basic_istreamIT_T0_EES9_RNS_12basic_stringIS6_S7_T1_EES6_, symObjAddr: 0xBB80, symBinAddr: 0x10000D6DC, symSize: 0x238 }
  - { offsetInCU: 0xA7EA, offset: 0xA7EA, size: 0x8, addend: 0x0, symName: __ZSt28__throw_bad_array_new_lengthB8ue170006v, symObjAddr: 0x646C, symBinAddr: 0x100007FC8, symSize: 0x34 }
  - { offsetInCU: 0xADB5, offset: 0xADB5, size: 0x8, addend: 0x0, symName: __ZN5Utils7EXITINGE, symObjAddr: 0x47FA0, symBinAddr: 0x100014018, symSize: 0x0 }
  - { offsetInCU: 0xADC8, offset: 0xADC8, size: 0x8, addend: 0x0, symName: __ZN5Utils18EMPLOYEE_ID_PROMPTE, symObjAddr: 0x47FB8, symBinAddr: 0x100014030, symSize: 0x0 }
  - { offsetInCU: 0xADDB, offset: 0xADDB, size: 0x8, addend: 0x0, symName: __ZN5Utils20EMPLOYEE_NAME_PROMPTE, symObjAddr: 0x47FD0, symBinAddr: 0x100014048, symSize: 0x0 }
  - { offsetInCU: 0xADEE, offset: 0xADEE, size: 0x8, addend: 0x0, symName: __ZN5Utils20SEARCH_OPTION_PROMPTE, symObjAddr: 0x47FE8, symBinAddr: 0x100014060, symSize: 0x0 }
  - { offsetInCU: 0xAE01, offset: 0xAE01, size: 0x8, addend: 0x0, symName: __ZN5Utils21DELET_EMPLOYEE_PROMPTE, symObjAddr: 0x48000, symBinAddr: 0x100014078, symSize: 0x0 }
  - { offsetInCU: 0xAE14, offset: 0xAE14, size: 0x8, addend: 0x0, symName: __ZN5Utils22MODIFY_EMPLOYEE_PROMPTE, symObjAddr: 0x48018, symBinAddr: 0x100014090, symSize: 0x0 }
  - { offsetInCU: 0xAE27, offset: 0xAE27, size: 0x8, addend: 0x0, symName: __ZN5Utils18EMPLOYEE_NOT_FOUNDE, symObjAddr: 0x48030, symBinAddr: 0x1000140A8, symSize: 0x0 }
  - { offsetInCU: 0xAE3A, offset: 0xAE3A, size: 0x8, addend: 0x0, symName: __ZN5Utils11EXIT_OPTIONE, symObjAddr: 0xD91C, symBinAddr: 0x10000FA04, symSize: 0x0 }
  - { offsetInCU: 0xAE4D, offset: 0xAE4D, size: 0x8, addend: 0x0, symName: __ZN5Lista9instanciaE, symObjAddr: 0x48048, symBinAddr: 0x1000140C0, symSize: 0x0 }
  - { offsetInCU: 0xB2DB, offset: 0xB2DB, size: 0x8, addend: 0x0, symName: __ZNSt3__16vectorI7PersonaNS_9allocatorIS1_EEE26__swap_out_circular_bufferERNS_14__split_bufferIS1_RS3_EE, symObjAddr: 0x5CE8, symBinAddr: 0x100007844, symSize: 0x110 }
  - { offsetInCU: 0xBC32, offset: 0xBC32, size: 0x8, addend: 0x0, symName: __Z7isalphai, symObjAddr: 0x43E8, symBinAddr: 0x100005F44, symSize: 0x28 }
  - { offsetInCU: 0xBC88, offset: 0xBC88, size: 0x8, addend: 0x0, symName: __Z7isdigiti, symObjAddr: 0x4720, symBinAddr: 0x10000627C, symSize: 0x28 }
  - { offsetInCU: 0xBD09, offset: 0xBD09, size: 0x8, addend: 0x0, symName: __Z7isspacei, symObjAddr: 0x4410, symBinAddr: 0x100005F6C, symSize: 0x28 }
  - { offsetInCU: 0xD814, offset: 0xD814, size: 0x8, addend: 0x0, symName: __ZNSt3__112basic_stringIcNS_11char_traitsIcEENS_9allocatorIcEEEC1B8ue170006ILi0EEEPKc, symObjAddr: 0x0, symBinAddr: 0x100001B5C, symSize: 0x34 }
  - { offsetInCU: 0xD852, offset: 0xD852, size: 0x8, addend: 0x0, symName: __ZN5Utils19obtenerNumeroValidoERKNSt3__112basic_stringIcNS0_11char_traitsIcEENS0_9allocatorIcEEEEil, symObjAddr: 0x34, symBinAddr: 0x100001B90, symSize: 0x124 }
  - { offsetInCU: 0xD8A0, offset: 0xD8A0, size: 0x8, addend: 0x0, symName: __ZNKSt3__19basic_iosIcNS_11char_traitsIcEEEntB8ue170006Ev, symObjAddr: 0x1A4, symBinAddr: 0x100001D00, symSize: 0x28 }
  - { offsetInCU: 0xD8C5, offset: 0xD8C5, size: 0x8, addend: 0x0, symName: __ZNSt3__19basic_iosIcNS_11char_traitsIcEEE5clearB8ue170006Ej, symObjAddr: 0x214, symBinAddr: 0x100001D70, symSize: 0x2C }
  - { offsetInCU: 0xD8F9, offset: 0xD8F9, size: 0x8, addend: 0x0, symName: __ZNSt3__114numeric_limitsIlE3maxB8ue170006Ev, symObjAddr: 0x240, symBinAddr: 0x100001D9C, symSize: 0x14 }
  - { offsetInCU: 0xD90D, offset: 0xD90D, size: 0x8, addend: 0x0, symName: __ZN5Utils25obtenerEntradaConEspaciosERKNSt3__112basic_stringIcNS0_11char_traitsIcEENS0_9allocatorIcEEEE, symObjAddr: 0x254, symBinAddr: 0x100001DB0, symSize: 0x11C }
  - { offsetInCU: 0xD940, offset: 0xD940, size: 0x8, addend: 0x0, symName: __ZNSt3__112basic_stringIcNS_11char_traitsIcEENS_9allocatorIcEEEC1B8ue170006Ev, symObjAddr: 0x370, symBinAddr: 0x100001ECC, symSize: 0x2C }
  - { offsetInCU: 0xD969, offset: 0xD969, size: 0x8, addend: 0x0, symName: __ZN5Utils18es_string_espaciosERKNSt3__112basic_stringIcNS0_11char_traitsIcEENS0_9allocatorIcEEEE, symObjAddr: 0x3F8, symBinAddr: 0x100001F54, symSize: 0xD4 }
  - { offsetInCU: 0xD9DD, offset: 0xD9DD, size: 0x8, addend: 0x0, symName: __ZN5Utils32obtenerEntradaConEspaciosNumerosERKNSt3__112basic_stringIcNS0_11char_traitsIcEENS0_9allocatorIcEEEE, symObjAddr: 0x4CC, symBinAddr: 0x100002028, symSize: 0x11C }
  - { offsetInCU: 0xDA10, offset: 0xDA10, size: 0x8, addend: 0x0, symName: __ZN5Utils25es_string_numero_espaciosERKNSt3__112basic_stringIcNS0_11char_traitsIcEENS0_9allocatorIcEEEE, symObjAddr: 0x5E8, symBinAddr: 0x100002144, symSize: 0xEC }
  - { offsetInCU: 0xDA84, offset: 0xDA84, size: 0x8, addend: 0x0, symName: __ZN5Utils20obtenerEntradaValidaERKNSt3__112basic_stringIcNS0_11char_traitsIcEENS0_9allocatorIcEEEE, symObjAddr: 0x6D4, symBinAddr: 0x100002230, symSize: 0x144 }
  - { offsetInCU: 0xDAB7, offset: 0xDAB7, size: 0x8, addend: 0x0, symName: __ZNKSt3__112basic_stringIcNS_11char_traitsIcEENS_9allocatorIcEEE5emptyB8ue170006Ev, symObjAddr: 0x818, symBinAddr: 0x100002374, symSize: 0x30 }
  - { offsetInCU: 0xDADC, offset: 0xDADC, size: 0x8, addend: 0x0, symName: __ZN5Utils9es_stringERKNSt3__112basic_stringIcNS0_11char_traitsIcEENS0_9allocatorIcEEEE, symObjAddr: 0x848, symBinAddr: 0x1000023A4, symSize: 0x4C }
  - { offsetInCU: 0xDAFF, offset: 0xDAFF, size: 0x8, addend: 0x0, symName: __ZN5Utils11handleErrorEi, symObjAddr: 0x894, symBinAddr: 0x1000023F0, symSize: 0xB4 }
  - { offsetInCU: 0xDB23, offset: 0xDB23, size: 0x8, addend: 0x0, symName: __ZNSt3__113basic_ostreamIcNS_11char_traitsIcEEElsB8ue170006EPFRS3_S4_E, symObjAddr: 0x948, symBinAddr: 0x1000024A4, symSize: 0x2C }
  - { offsetInCU: 0xDB56, offset: 0xDB56, size: 0x8, addend: 0x0, symName: __ZN5Utils12guardarDatosEv, symObjAddr: 0x9CC, symBinAddr: 0x100002528, symSize: 0x760 }
  - { offsetInCU: 0xDC10, offset: 0xDC10, size: 0x8, addend: 0x0, symName: __ZNSt3__112basic_stringIcNS_11char_traitsIcEENS_9allocatorIcEEEaSB8ue170006EOS5_, symObjAddr: 0x112C, symBinAddr: 0x100002C88, symSize: 0x34 }
  - { offsetInCU: 0xDC44, offset: 0xDC44, size: 0x8, addend: 0x0, symName: __ZN7PersonaC1ENSt3__112basic_stringIcNS0_11char_traitsIcEENS0_9allocatorIcEEEES6_S6_S6_iS6_S6_S6_S6_dd, symObjAddr: 0x1160, symBinAddr: 0x100002CBC, symSize: 0x90 }
  - { offsetInCU: 0xDD10, offset: 0xDD10, size: 0x8, addend: 0x0, symName: __ZN5Utils12imprimirMenuEv, symObjAddr: 0x11F0, symBinAddr: 0x100002D4C, symSize: 0x53C }
  - { offsetInCU: 0xDDC5, offset: 0xDDC5, size: 0x8, addend: 0x0, symName: __ZNSt3__113basic_ostreamIcNS_11char_traitsIcEEElsB8ue170006EPFRNS_8ios_baseES5_E, symObjAddr: 0x17AC, symBinAddr: 0x100003308, symSize: 0x40 }
  - { offsetInCU: 0xDDF8, offset: 0xDDF8, size: 0x8, addend: 0x0, symName: __ZNKSt3__112basic_stringIcNS_11char_traitsIcEENS_9allocatorIcEEE4sizeB8ue170006Ev, symObjAddr: 0x1874, symBinAddr: 0x1000033D0, symSize: 0x54 }
  - { offsetInCU: 0xDE1D, offset: 0xDE1D, size: 0x8, addend: 0x0, symName: __ZN5Utils15mostrarEmpleadoEP4Nodo, symObjAddr: 0x18C8, symBinAddr: 0x100003424, symSize: 0x9A8 }
  - { offsetInCU: 0xDE41, offset: 0xDE41, size: 0x8, addend: 0x0, symName: __ZNK7Persona16getID_TrabajadorEv, symObjAddr: 0x22A0, symBinAddr: 0x100003DFC, symSize: 0x18 }
  - { offsetInCU: 0xDE66, offset: 0xDE66, size: 0x8, addend: 0x0, symName: __ZNK7Persona9getNombreEv, symObjAddr: 0x22B8, symBinAddr: 0x100003E14, symSize: 0x3C }
  - { offsetInCU: 0xDE8B, offset: 0xDE8B, size: 0x8, addend: 0x0, symName: __ZNK7Persona18getApellidoPaternoEv, symObjAddr: 0x22F4, symBinAddr: 0x100003E50, symSize: 0x3C }
  - { offsetInCU: 0xDEB0, offset: 0xDEB0, size: 0x8, addend: 0x0, symName: __ZNK7Persona18getApellidoMaternoEv, symObjAddr: 0x2330, symBinAddr: 0x100003E8C, symSize: 0x3C }
  - { offsetInCU: 0xDED5, offset: 0xDED5, size: 0x8, addend: 0x0, symName: __ZNK7Persona7getSexoEv, symObjAddr: 0x236C, symBinAddr: 0x100003EC8, symSize: 0x3C }
  - { offsetInCU: 0xDEFA, offset: 0xDEFA, size: 0x8, addend: 0x0, symName: __ZNK7Persona7getEdadEv, symObjAddr: 0x23A8, symBinAddr: 0x100003F04, symSize: 0x18 }
  - { offsetInCU: 0xDF1F, offset: 0xDF1F, size: 0x8, addend: 0x0, symName: __ZNK7Persona12getDireccionEv, symObjAddr: 0x23C0, symBinAddr: 0x100003F1C, symSize: 0x3C }
  - { offsetInCU: 0xDF44, offset: 0xDF44, size: 0x8, addend: 0x0, symName: __ZNK7Persona11getTelefonoEv, symObjAddr: 0x23FC, symBinAddr: 0x100003F58, symSize: 0x3C }
  - { offsetInCU: 0xDF69, offset: 0xDF69, size: 0x8, addend: 0x0, symName: __ZNK7Persona9getPuestoEv, symObjAddr: 0x2438, symBinAddr: 0x100003F94, symSize: 0x3C }
  - { offsetInCU: 0xDF8E, offset: 0xDF8E, size: 0x8, addend: 0x0, symName: __ZNK7Persona15getDepartamentoEv, symObjAddr: 0x2474, symBinAddr: 0x100003FD0, symSize: 0x3C }
  - { offsetInCU: 0xDFB3, offset: 0xDFB3, size: 0x8, addend: 0x0, symName: __ZNK7Persona18getHorasTrabajadasEv, symObjAddr: 0x24B0, symBinAddr: 0x10000400C, symSize: 0x18 }
  - { offsetInCU: 0xDFD8, offset: 0xDFD8, size: 0x8, addend: 0x0, symName: __ZNK7Persona15getCostoPorHoraEv, symObjAddr: 0x24C8, symBinAddr: 0x100004024, symSize: 0x18 }
  - { offsetInCU: 0xDFFD, offset: 0xDFFD, size: 0x8, addend: 0x0, symName: __ZNK7Persona14calcularSueldoEv, symObjAddr: 0x24E0, symBinAddr: 0x10000403C, symSize: 0x20 }
  - { offsetInCU: 0xE022, offset: 0xE022, size: 0x8, addend: 0x0, symName: _main, symObjAddr: 0x2500, symBinAddr: 0x10000405C, symSize: 0x670 }
  - { offsetInCU: 0xE127, offset: 0xE127, size: 0x8, addend: 0x0, symName: __ZN5Lista16obtenerInstanciaEv, symObjAddr: 0x2B88, symBinAddr: 0x1000046E4, symSize: 0xB4 }
  - { offsetInCU: 0xE150, offset: 0xE150, size: 0x8, addend: 0x0, symName: __ZN7PersonaC1Ev, symObjAddr: 0x2C3C, symBinAddr: 0x100004798, symSize: 0x2C }
  - { offsetInCU: 0xE17E, offset: 0xE17E, size: 0x8, addend: 0x0, symName: __ZN7PersonaaSEOS_, symObjAddr: 0x2C68, symBinAddr: 0x1000047C4, symSize: 0xEC }
  - { offsetInCU: 0xE1AE, offset: 0xE1AE, size: 0x8, addend: 0x0, symName: __ZN7PersonaD1Ev, symObjAddr: 0x2D54, symBinAddr: 0x1000048B0, symSize: 0x2C }
  - { offsetInCU: 0xE1D9, offset: 0xE1D9, size: 0x8, addend: 0x0, symName: __ZN5Lista13insertPersonaERK7Persona, symObjAddr: 0x2D80, symBinAddr: 0x1000048DC, symSize: 0x470 }
  - { offsetInCU: 0xE23B, offset: 0xE23B, size: 0x8, addend: 0x0, symName: __ZN7Persona16setID_TrabajadorEi, symObjAddr: 0x31F0, symBinAddr: 0x100004D4C, symSize: 0x20 }
  - { offsetInCU: 0xE26E, offset: 0xE26E, size: 0x8, addend: 0x0, symName: __ZN5Lista29agregar_ordenado_por_apellidoE7Persona, symObjAddr: 0x3210, symBinAddr: 0x100004D6C, symSize: 0x304 }
  - { offsetInCU: 0xE2CD, offset: 0xE2CD, size: 0x8, addend: 0x0, symName: __ZN7PersonaC1ERKS_, symObjAddr: 0x3514, symBinAddr: 0x100005070, symSize: 0x34 }
  - { offsetInCU: 0xE301, offset: 0xE301, size: 0x8, addend: 0x0, symName: __ZN5Lista7mostrarEv, symObjAddr: 0x3548, symBinAddr: 0x1000050A4, symSize: 0x84 }
  - { offsetInCU: 0xE334, offset: 0xE334, size: 0x8, addend: 0x0, symName: __ZN5Lista16eliminarEmpleadoEi, symObjAddr: 0x35CC, symBinAddr: 0x100005128, symSize: 0x1D0 }
  - { offsetInCU: 0xE383, offset: 0xE383, size: 0x8, addend: 0x0, symName: __ZN5Lista11buscarPorIDEi, symObjAddr: 0x379C, symBinAddr: 0x1000052F8, symSize: 0xB0 }
  - { offsetInCU: 0xE3C4, offset: 0xE3C4, size: 0x8, addend: 0x0, symName: __ZN5Lista14modificarPorIDEiRK7Persona, symObjAddr: 0x384C, symBinAddr: 0x1000053A8, symSize: 0xB0 }
  - { offsetInCU: 0xE413, offset: 0xE413, size: 0x8, addend: 0x0, symName: __ZN5Lista13updatePersonaERK7Personai, symObjAddr: 0x38FC, symBinAddr: 0x100005458, symSize: 0x510 }
  - { offsetInCU: 0xE484, offset: 0xE484, size: 0x8, addend: 0x0, symName: __ZN5Lista15buscarPorNombreENSt3__112basic_stringIcNS0_11char_traitsIcEENS0_9allocatorIcEEEES6_S6_, symObjAddr: 0x4114, symBinAddr: 0x100005C70, symSize: 0x1E0 }
  - { offsetInCU: 0xE4E4, offset: 0xE4E4, size: 0x8, addend: 0x0, symName: __ZNSt3__123__libcpp_numeric_limitsIlLb1EE3maxB8ue170006Ev, symObjAddr: 0x42F4, symBinAddr: 0x100005E50, symSize: 0x8 }
  - { offsetInCU: 0xE4F8, offset: 0xE4F8, size: 0x8, addend: 0x0, symName: __ZNKSt3__112basic_stringIcNS_11char_traitsIcEENS_9allocatorIcEEE5beginB8ue170006Ev, symObjAddr: 0x42FC, symBinAddr: 0x100005E58, symSize: 0x4C }
  - { offsetInCU: 0xE51D, offset: 0xE51D, size: 0x8, addend: 0x0, symName: __ZNKSt3__112basic_stringIcNS_11char_traitsIcEENS_9allocatorIcEEE3endB8ue170006Ev, symObjAddr: 0x4348, symBinAddr: 0x100005EA4, symSize: 0x54 }
  - { offsetInCU: 0xE542, offset: 0xE542, size: 0x8, addend: 0x0, symName: __ZNKSt3__111__wrap_iterIPKcEdeB8ue170006Ev, symObjAddr: 0x43D0, symBinAddr: 0x100005F2C, symSize: 0x18 }
  - { offsetInCU: 0xE567, offset: 0xE567, size: 0x8, addend: 0x0, symName: __ZNSt3__111__wrap_iterIPKcEppB8ue170006Ev, symObjAddr: 0x4438, symBinAddr: 0x100005F94, symSize: 0x20 }
  - { offsetInCU: 0xE58C, offset: 0xE58C, size: 0x8, addend: 0x0, symName: __ZNKSt3__112basic_stringIcNS_11char_traitsIcEENS_9allocatorIcEEE21__make_const_iteratorB8ue170006EPKc, symObjAddr: 0x4458, symBinAddr: 0x100005FB4, symSize: 0x30 }
  - { offsetInCU: 0xE5C0, offset: 0xE5C0, size: 0x8, addend: 0x0, symName: __ZNKSt3__112basic_stringIcNS_11char_traitsIcEENS_9allocatorIcEEE13__get_pointerB8ue170006Ev, symObjAddr: 0x4488, symBinAddr: 0x100005FE4, symSize: 0x54 }
  - { offsetInCU: 0xE5E5, offset: 0xE5E5, size: 0x8, addend: 0x0, symName: __ZNSt3__111__wrap_iterIPKcEC1B8ue170006ES2_, symObjAddr: 0x44E8, symBinAddr: 0x100006044, symSize: 0x34 }
  - { offsetInCU: 0xE61C, offset: 0xE61C, size: 0x8, addend: 0x0, symName: __ZNSt3__111__wrap_iterIPKcEC2B8ue170006ES2_, symObjAddr: 0x451C, symBinAddr: 0x100006078, symSize: 0x20 }
  - { offsetInCU: 0xE653, offset: 0xE653, size: 0x8, addend: 0x0, symName: __ZNKSt3__112basic_stringIcNS_11char_traitsIcEENS_9allocatorIcEEE9__is_longB8ue170006Ev, symObjAddr: 0x453C, symBinAddr: 0x100006098, symSize: 0x38 }
  - { offsetInCU: 0xE678, offset: 0xE678, size: 0x8, addend: 0x0, symName: __ZNKSt3__112basic_stringIcNS_11char_traitsIcEENS_9allocatorIcEEE18__get_long_pointerB8ue170006Ev, symObjAddr: 0x4574, symBinAddr: 0x1000060D0, symSize: 0x28 }
  - { offsetInCU: 0xE69D, offset: 0xE69D, size: 0x8, addend: 0x0, symName: __ZNKSt3__112basic_stringIcNS_11char_traitsIcEENS_9allocatorIcEEE19__get_short_pointerB8ue170006Ev, symObjAddr: 0x459C, symBinAddr: 0x1000060F8, symSize: 0x28 }
  - { offsetInCU: 0xE6C2, offset: 0xE6C2, size: 0x8, addend: 0x0, symName: __ZNKSt3__117__compressed_pairINS_12basic_stringIcNS_11char_traitsIcEENS_9allocatorIcEEE5__repES5_E5firstB8ue170006Ev, symObjAddr: 0x45C4, symBinAddr: 0x100006120, symSize: 0x24 }
  - { offsetInCU: 0xE6E7, offset: 0xE6E7, size: 0x8, addend: 0x0, symName: __ZNKSt3__122__compressed_pair_elemINS_12basic_stringIcNS_11char_traitsIcEENS_9allocatorIcEEE5__repELi0ELb0EE5__getB8ue170006Ev, symObjAddr: 0x45E8, symBinAddr: 0x100006144, symSize: 0x14 }
  - { offsetInCU: 0xE70C, offset: 0xE70C, size: 0x8, addend: 0x0, symName: __ZNSt3__114pointer_traitsIPKcE10pointer_toB8ue170006ERS1_, symObjAddr: 0x45FC, symBinAddr: 0x100006158, symSize: 0x14 }
  - { offsetInCU: 0xE72F, offset: 0xE72F, size: 0x8, addend: 0x0, symName: __ZNKSt3__111__wrap_iterIPKcE4baseB8ue170006Ev, symObjAddr: 0x4658, symBinAddr: 0x1000061B4, symSize: 0x18 }
  - { offsetInCU: 0xE753, offset: 0xE753, size: 0x8, addend: 0x0, symName: __Z8__istypeim, symObjAddr: 0x4670, symBinAddr: 0x1000061CC, symSize: 0x8C }
  - { offsetInCU: 0xE78D, offset: 0xE78D, size: 0x8, addend: 0x0, symName: __Z7isasciii, symObjAddr: 0x46FC, symBinAddr: 0x100006258, symSize: 0x24 }
  - { offsetInCU: 0xE7B9, offset: 0xE7B9, size: 0x8, addend: 0x0, symName: __Z9__isctypeim, symObjAddr: 0x4748, symBinAddr: 0x1000062A4, symSize: 0x80 }
  - { offsetInCU: 0xE7F4, offset: 0xE7F4, size: 0x8, addend: 0x0, symName: __ZN7PersonaC2ENSt3__112basic_stringIcNS0_11char_traitsIcEENS0_9allocatorIcEEEES6_S6_S6_iS6_S6_S6_S6_dd, symObjAddr: 0x4870, symBinAddr: 0x1000063CC, symSize: 0x218 }
  - { offsetInCU: 0xE8C5, offset: 0xE8C5, size: 0x8, addend: 0x0, symName: __ZNSt3__18ios_base4setfB8ue170006Ejj, symObjAddr: 0x4A88, symBinAddr: 0x1000065E4, symSize: 0x5C }
  - { offsetInCU: 0xE918, offset: 0xE918, size: 0x8, addend: 0x0, symName: __ZNSt3__18ios_base6unsetfB8ue170006Ej, symObjAddr: 0x4AE4, symBinAddr: 0x100006640, symSize: 0x28 }
  - { offsetInCU: 0xE94E, offset: 0xE94E, size: 0x8, addend: 0x0, symName: __ZNSt3__18__iom_t6C1B8ue170006Ei, symObjAddr: 0x4B0C, symBinAddr: 0x100006668, symSize: 0x34 }
  - { offsetInCU: 0xE985, offset: 0xE985, size: 0x8, addend: 0x0, symName: __ZNSt3__18__iom_t6C2B8ue170006Ei, symObjAddr: 0x4B40, symBinAddr: 0x10000669C, symSize: 0x20 }
  - { offsetInCU: 0xE9BC, offset: 0xE9BC, size: 0x8, addend: 0x0, symName: __ZN5ListaC1Ev, symObjAddr: 0x4B60, symBinAddr: 0x1000066BC, symSize: 0x2C }
  - { offsetInCU: 0xE9E5, offset: 0xE9E5, size: 0x8, addend: 0x0, symName: __ZN5Lista17connectToDatabaseEPKc, symObjAddr: 0x4B8C, symBinAddr: 0x1000066E8, symSize: 0xD4 }
  - { offsetInCU: 0xEA26, offset: 0xEA26, size: 0x8, addend: 0x0, symName: __ZN5Lista11createTableEv, symObjAddr: 0x4C60, symBinAddr: 0x1000067BC, symSize: 0xE4 }
  - { offsetInCU: 0xEA75, offset: 0xEA75, size: 0x8, addend: 0x0, symName: __ZN5Lista12populateListEv, symObjAddr: 0x4D44, symBinAddr: 0x1000068A0, symSize: 0x508 }
  - { offsetInCU: 0xEB57, offset: 0xEB57, size: 0x8, addend: 0x0, symName: __ZN5ListaC2Ev, symObjAddr: 0x524C, symBinAddr: 0x100006DA8, symSize: 0x18 }
  - { offsetInCU: 0xEB80, offset: 0xEB80, size: 0x8, addend: 0x0, symName: __ZNSt3__16vectorI7PersonaNS_9allocatorIS1_EEEC1B8ue170006Ev, symObjAddr: 0x5264, symBinAddr: 0x100006DC0, symSize: 0x2C }
  - { offsetInCU: 0xEBA9, offset: 0xEBA9, size: 0x8, addend: 0x0, symName: __ZN7Persona9setNombreERKNSt3__112basic_stringIcNS0_11char_traitsIcEENS0_9allocatorIcEEEE, symObjAddr: 0x5290, symBinAddr: 0x100006DEC, symSize: 0x30 }
  - { offsetInCU: 0xEBDC, offset: 0xEBDC, size: 0x8, addend: 0x0, symName: __ZN7Persona18setApellidoPaternoERKNSt3__112basic_stringIcNS0_11char_traitsIcEENS0_9allocatorIcEEEE, symObjAddr: 0x52C0, symBinAddr: 0x100006E1C, symSize: 0x30 }
  - { offsetInCU: 0xEC0F, offset: 0xEC0F, size: 0x8, addend: 0x0, symName: __ZN7Persona18setApellidoMaternoERKNSt3__112basic_stringIcNS0_11char_traitsIcEENS0_9allocatorIcEEEE, symObjAddr: 0x52F0, symBinAddr: 0x100006E4C, symSize: 0x30 }
  - { offsetInCU: 0xEC42, offset: 0xEC42, size: 0x8, addend: 0x0, symName: __ZN7Persona7setSexoERKNSt3__112basic_stringIcNS0_11char_traitsIcEENS0_9allocatorIcEEEE, symObjAddr: 0x5320, symBinAddr: 0x100006E7C, symSize: 0x30 }
  - { offsetInCU: 0xEC75, offset: 0xEC75, size: 0x8, addend: 0x0, symName: __ZN7Persona7setEdadEi, symObjAddr: 0x5350, symBinAddr: 0x100006EAC, symSize: 0x20 }
  - { offsetInCU: 0xECA8, offset: 0xECA8, size: 0x8, addend: 0x0, symName: __ZN7Persona12setDireccionERKNSt3__112basic_stringIcNS0_11char_traitsIcEENS0_9allocatorIcEEEE, symObjAddr: 0x5370, symBinAddr: 0x100006ECC, symSize: 0x30 }
  - { offsetInCU: 0xECDB, offset: 0xECDB, size: 0x8, addend: 0x0, symName: __ZN7Persona11setTelefonoERKNSt3__112basic_stringIcNS0_11char_traitsIcEENS0_9allocatorIcEEEE, symObjAddr: 0x53A0, symBinAddr: 0x100006EFC, symSize: 0x30 }
  - { offsetInCU: 0xED0E, offset: 0xED0E, size: 0x8, addend: 0x0, symName: __ZN7Persona9setPuestoERKNSt3__112basic_stringIcNS0_11char_traitsIcEENS0_9allocatorIcEEEE, symObjAddr: 0x53D0, symBinAddr: 0x100006F2C, symSize: 0x30 }
  - { offsetInCU: 0xED41, offset: 0xED41, size: 0x8, addend: 0x0, symName: __ZN7Persona15setDepartamentoERKNSt3__112basic_stringIcNS0_11char_traitsIcEENS0_9allocatorIcEEEE, symObjAddr: 0x5400, symBinAddr: 0x100006F5C, symSize: 0x30 }
  - { offsetInCU: 0xED74, offset: 0xED74, size: 0x8, addend: 0x0, symName: __ZN7Persona18setHorasTrabajadasEd, symObjAddr: 0x5430, symBinAddr: 0x100006F8C, symSize: 0x20 }
  - { offsetInCU: 0xEDA7, offset: 0xEDA7, size: 0x8, addend: 0x0, symName: __ZN7Persona15setCostoPorHoraEd, symObjAddr: 0x5450, symBinAddr: 0x100006FAC, symSize: 0x20 }
  - { offsetInCU: 0xEDDA, offset: 0xEDDA, size: 0x8, addend: 0x0, symName: __ZNSt3__16vectorI7PersonaNS_9allocatorIS1_EEE9push_backB8ue170006ERKS1_, symObjAddr: 0x5470, symBinAddr: 0x100006FCC, symSize: 0x6C }
  - { offsetInCU: 0xEE0F, offset: 0xEE0F, size: 0x8, addend: 0x0, symName: __ZNSt3__16vectorI7PersonaNS_9allocatorIS1_EEE5beginB8ue170006Ev, symObjAddr: 0x551C, symBinAddr: 0x100007078, symSize: 0x30 }
  - { offsetInCU: 0xEE35, offset: 0xEE35, size: 0x8, addend: 0x0, symName: __ZNSt3__16vectorI7PersonaNS_9allocatorIS1_EEE3endB8ue170006Ev, symObjAddr: 0x554C, symBinAddr: 0x1000070A8, symSize: 0x30 }
  - { offsetInCU: 0xEE5B, offset: 0xEE5B, size: 0x8, addend: 0x0, symName: __ZNKSt3__111__wrap_iterIP7PersonaEdeB8ue170006Ev, symObjAddr: 0x55B0, symBinAddr: 0x10000710C, symSize: 0x18 }
  - { offsetInCU: 0xEE80, offset: 0xEE80, size: 0x8, addend: 0x0, symName: __ZN5Lista16agregar_al_finalE7Persona, symObjAddr: 0x55C8, symBinAddr: 0x100007124, symSize: 0xF0 }
  - { offsetInCU: 0xEEDE, offset: 0xEEDE, size: 0x8, addend: 0x0, symName: __ZNSt3__111__wrap_iterIP7PersonaEppB8ue170006Ev, symObjAddr: 0x56B8, symBinAddr: 0x100007214, symSize: 0x20 }
  - { offsetInCU: 0xEF03, offset: 0xEF03, size: 0x8, addend: 0x0, symName: __ZNSt3__16vectorI7PersonaNS_9allocatorIS1_EEED1B8ue170006Ev, symObjAddr: 0x56D8, symBinAddr: 0x100007234, symSize: 0x2C }
  - { offsetInCU: 0xEF2C, offset: 0xEF2C, size: 0x8, addend: 0x0, symName: __ZNSt3__16vectorI7PersonaNS_9allocatorIS1_EEEC2B8ue170006Ev, symObjAddr: 0x5704, symBinAddr: 0x100007260, symSize: 0x4C }
  - { offsetInCU: 0xEF5F, offset: 0xEF5F, size: 0x8, addend: 0x0, symName: __ZNSt3__117__compressed_pairIP7PersonaNS_9allocatorIS1_EEEC1B8ue170006IDnNS_18__default_init_tagEEEOT_OT0_, symObjAddr: 0x5750, symBinAddr: 0x1000072AC, symSize: 0x3C }
  - { offsetInCU: 0xEFB6, offset: 0xEFB6, size: 0x8, addend: 0x0, symName: __ZNSt3__117__compressed_pairIP7PersonaNS_9allocatorIS1_EEEC2B8ue170006IDnNS_18__default_init_tagEEEOT_OT0_, symObjAddr: 0x578C, symBinAddr: 0x1000072E8, symSize: 0x40 }
  - { offsetInCU: 0xF00D, offset: 0xF00D, size: 0x8, addend: 0x0, symName: __ZNSt3__122__compressed_pair_elemIP7PersonaLi0ELb0EEC2B8ue170006IDnvEEOT_, symObjAddr: 0x57CC, symBinAddr: 0x100007328, symSize: 0x1C }
  - { offsetInCU: 0xF04E, offset: 0xF04E, size: 0x8, addend: 0x0, symName: __ZNSt3__122__compressed_pair_elemINS_9allocatorI7PersonaEELi1ELb1EEC2B8ue170006ENS_18__default_init_tagE, symObjAddr: 0x57E8, symBinAddr: 0x100007344, symSize: 0x2C }
  - { offsetInCU: 0xF082, offset: 0xF082, size: 0x8, addend: 0x0, symName: __ZNSt3__19allocatorI7PersonaEC2B8ue170006Ev, symObjAddr: 0x5814, symBinAddr: 0x100007370, symSize: 0x2C }
  - { offsetInCU: 0xF0AB, offset: 0xF0AB, size: 0x8, addend: 0x0, symName: __ZNSt3__116__non_trivial_ifILb1ENS_9allocatorI7PersonaEEEC2B8ue170006Ev, symObjAddr: 0x5840, symBinAddr: 0x10000739C, symSize: 0x14 }
  - { offsetInCU: 0xF0D4, offset: 0xF0D4, size: 0x8, addend: 0x0, symName: __ZNSt3__16vectorI7PersonaNS_9allocatorIS1_EEE9__end_capB8ue170006Ev, symObjAddr: 0x5854, symBinAddr: 0x1000073B0, symSize: 0x28 }
  - { offsetInCU: 0xF0F9, offset: 0xF0F9, size: 0x8, addend: 0x0, symName: __ZNSt3__16vectorI7PersonaNS_9allocatorIS1_EEE22__construct_one_at_endB8ue170006IJRKS1_EEEvDpOT_, symObjAddr: 0x587C, symBinAddr: 0x1000073D8, symSize: 0x90 }
  - { offsetInCU: 0xF147, offset: 0xF147, size: 0x8, addend: 0x0, symName: __ZNSt3__16vectorI7PersonaNS_9allocatorIS1_EEE21__push_back_slow_pathIRKS1_EEvOT_, symObjAddr: 0x590C, symBinAddr: 0x100007468, symSize: 0xD8 }
  - { offsetInCU: 0xF1A3, offset: 0xF1A3, size: 0x8, addend: 0x0, symName: __ZNSt3__117__compressed_pairIP7PersonaNS_9allocatorIS1_EEE5firstB8ue170006Ev, symObjAddr: 0x59E4, symBinAddr: 0x100007540, symSize: 0x24 }
  - { offsetInCU: 0xF1C8, offset: 0xF1C8, size: 0x8, addend: 0x0, symName: __ZNSt3__122__compressed_pair_elemIP7PersonaLi0ELb0EE5__getB8ue170006Ev, symObjAddr: 0x5A08, symBinAddr: 0x100007564, symSize: 0x14 }
  - { offsetInCU: 0xF206, offset: 0xF206, size: 0x8, addend: 0x0, symName: __ZNSt3__16vectorI7PersonaNS_9allocatorIS1_EEE21_ConstructTransactionC1B8ue170006ERS4_m, symObjAddr: 0x5A1C, symBinAddr: 0x100007578, symSize: 0x3C }
  - { offsetInCU: 0xF24D, offset: 0xF24D, size: 0x8, addend: 0x0, symName: __ZNSt3__116allocator_traitsINS_9allocatorI7PersonaEEE9constructB8ue170006IS2_JRKS2_EvEEvRS3_PT_DpOT0_, symObjAddr: 0x5A58, symBinAddr: 0x1000075B4, symSize: 0x34 }
  - { offsetInCU: 0xF2A4, offset: 0xF2A4, size: 0x8, addend: 0x0, symName: __ZNSt3__16vectorI7PersonaNS_9allocatorIS1_EEE7__allocB8ue170006Ev, symObjAddr: 0x5A8C, symBinAddr: 0x1000075E8, symSize: 0x28 }
  - { offsetInCU: 0xF2C9, offset: 0xF2C9, size: 0x8, addend: 0x0, symName: __ZNSt3__16vectorI7PersonaNS_9allocatorIS1_EEE21_ConstructTransactionD1B8ue170006Ev, symObjAddr: 0x5AC8, symBinAddr: 0x100007624, symSize: 0x2C }
  - { offsetInCU: 0xF2F2, offset: 0xF2F2, size: 0x8, addend: 0x0, symName: __ZNSt3__16vectorI7PersonaNS_9allocatorIS1_EEE21_ConstructTransactionC2B8ue170006ERS4_m, symObjAddr: 0x5AF4, symBinAddr: 0x100007650, symSize: 0x4C }
  - { offsetInCU: 0xF339, offset: 0xF339, size: 0x8, addend: 0x0, symName: __ZNSt3__19allocatorI7PersonaE9constructB8ue170006IS1_JRKS1_EEEvPT_DpOT0_, symObjAddr: 0x5B40, symBinAddr: 0x10000769C, symSize: 0x30 }
  - { offsetInCU: 0xF38E, offset: 0xF38E, size: 0x8, addend: 0x0, symName: __ZNSt3__117__compressed_pairIP7PersonaNS_9allocatorIS1_EEE6secondB8ue170006Ev, symObjAddr: 0x5B70, symBinAddr: 0x1000076CC, symSize: 0x24 }
  - { offsetInCU: 0xF3B3, offset: 0xF3B3, size: 0x8, addend: 0x0, symName: __ZNSt3__122__compressed_pair_elemINS_9allocatorI7PersonaEELi1ELb1EE5__getB8ue170006Ev, symObjAddr: 0x5B94, symBinAddr: 0x1000076F0, symSize: 0x14 }
  - { offsetInCU: 0xF3D8, offset: 0xF3D8, size: 0x8, addend: 0x0, symName: __ZNSt3__16vectorI7PersonaNS_9allocatorIS1_EEE21_ConstructTransactionD2B8ue170006Ev, symObjAddr: 0x5BA8, symBinAddr: 0x100007704, symSize: 0x20 }
  - { offsetInCU: 0xF401, offset: 0xF401, size: 0x8, addend: 0x0, symName: __ZNKSt3__16vectorI7PersonaNS_9allocatorIS1_EEE11__recommendB8ue170006Em, symObjAddr: 0x5BC8, symBinAddr: 0x100007724, symSize: 0xB4 }
  - { offsetInCU: 0xF454, offset: 0xF454, size: 0x8, addend: 0x0, symName: __ZNKSt3__16vectorI7PersonaNS_9allocatorIS1_EEE4sizeB8ue170006Ev, symObjAddr: 0x5C7C, symBinAddr: 0x1000077D8, symSize: 0x28 }
  - { offsetInCU: 0xF479, offset: 0xF479, size: 0x8, addend: 0x0, symName: __ZNSt3__114__split_bufferI7PersonaRNS_9allocatorIS1_EEEC1EmmS4_, symObjAddr: 0x5CA4, symBinAddr: 0x100007800, symSize: 0x44 }
  - { offsetInCU: 0xF4CE, offset: 0xF4CE, size: 0x8, addend: 0x0, symName: __ZNSt3__114__split_bufferI7PersonaRNS_9allocatorIS1_EEED1Ev, symObjAddr: 0x5DF8, symBinAddr: 0x100007954, symSize: 0x2C }
  - { offsetInCU: 0xF4F9, offset: 0xF4F9, size: 0x8, addend: 0x0, symName: __ZNKSt3__16vectorI7PersonaNS_9allocatorIS1_EEE8max_sizeEv, symObjAddr: 0x5E24, symBinAddr: 0x100007980, symSize: 0x60 }
  - { offsetInCU: 0xF51F, offset: 0xF51F, size: 0x8, addend: 0x0, symName: __ZNKSt3__16vectorI7PersonaNS_9allocatorIS1_EEE20__throw_length_errorB8ue170006Ev, symObjAddr: 0x5E84, symBinAddr: 0x1000079E0, symSize: 0x1C }
  - { offsetInCU: 0xF544, offset: 0xF544, size: 0x8, addend: 0x0, symName: __ZNKSt3__16vectorI7PersonaNS_9allocatorIS1_EEE8capacityB8ue170006Ev, symObjAddr: 0x5EA0, symBinAddr: 0x1000079FC, symSize: 0x40 }
  - { offsetInCU: 0xF573, offset: 0xF573, size: 0x8, addend: 0x0, symName: __ZNSt3__116allocator_traitsINS_9allocatorI7PersonaEEE8max_sizeB8ue170006IS3_vEEmRKS3_, symObjAddr: 0x5F38, symBinAddr: 0x100007A94, symSize: 0x24 }
  - { offsetInCU: 0xF5A1, offset: 0xF5A1, size: 0x8, addend: 0x0, symName: __ZNKSt3__16vectorI7PersonaNS_9allocatorIS1_EEE7__allocB8ue170006Ev, symObjAddr: 0x5F5C, symBinAddr: 0x100007AB8, symSize: 0x28 }
  - { offsetInCU: 0xF5DA, offset: 0xF5DA, size: 0x8, addend: 0x0, symName: __ZNKSt3__16__lessIvvEclB8ue170006ImmEEbRKT_RKT0_, symObjAddr: 0x5FD8, symBinAddr: 0x100007B34, symSize: 0x34 }
  - { offsetInCU: 0xF62D, offset: 0xF62D, size: 0x8, addend: 0x0, symName: __ZNKSt3__19allocatorI7PersonaE8max_sizeB8ue170006Ev, symObjAddr: 0x600C, symBinAddr: 0x100007B68, symSize: 0x20 }
  - { offsetInCU: 0xF652, offset: 0xF652, size: 0x8, addend: 0x0, symName: __ZNKSt3__117__compressed_pairIP7PersonaNS_9allocatorIS1_EEE6secondB8ue170006Ev, symObjAddr: 0x602C, symBinAddr: 0x100007B88, symSize: 0x24 }
  - { offsetInCU: 0xF677, offset: 0xF677, size: 0x8, addend: 0x0, symName: __ZNKSt3__122__compressed_pair_elemINS_9allocatorI7PersonaEELi1ELb1EE5__getB8ue170006Ev, symObjAddr: 0x6050, symBinAddr: 0x100007BAC, symSize: 0x14 }
  - { offsetInCU: 0xF69C, offset: 0xF69C, size: 0x8, addend: 0x0, symName: __ZNSt12length_errorC1B8ue170006EPKc, symObjAddr: 0x60C8, symBinAddr: 0x100007C24, symSize: 0x34 }
  - { offsetInCU: 0xF6D3, offset: 0xF6D3, size: 0x8, addend: 0x0, symName: __ZNSt12length_errorC2B8ue170006EPKc, symObjAddr: 0x60FC, symBinAddr: 0x100007C58, symSize: 0x4C }
  - { offsetInCU: 0xF70A, offset: 0xF70A, size: 0x8, addend: 0x0, symName: __ZNKSt3__16vectorI7PersonaNS_9allocatorIS1_EEE9__end_capB8ue170006Ev, symObjAddr: 0x6148, symBinAddr: 0x100007CA4, symSize: 0x28 }
  - { offsetInCU: 0xF72F, offset: 0xF72F, size: 0x8, addend: 0x0, symName: __ZNKSt3__117__compressed_pairIP7PersonaNS_9allocatorIS1_EEE5firstB8ue170006Ev, symObjAddr: 0x6170, symBinAddr: 0x100007CCC, symSize: 0x24 }
  - { offsetInCU: 0xF754, offset: 0xF754, size: 0x8, addend: 0x0, symName: __ZNKSt3__122__compressed_pair_elemIP7PersonaLi0ELb0EE5__getB8ue170006Ev, symObjAddr: 0x6194, symBinAddr: 0x100007CF0, symSize: 0x14 }
  - { offsetInCU: 0xF779, offset: 0xF779, size: 0x8, addend: 0x0, symName: __ZNSt3__114__split_bufferI7PersonaRNS_9allocatorIS1_EEEC2EmmS4_, symObjAddr: 0x61FC, symBinAddr: 0x100007D58, symSize: 0xE0 }
  - { offsetInCU: 0xF7EB, offset: 0xF7EB, size: 0x8, addend: 0x0, symName: __ZNSt3__117__compressed_pairIP7PersonaRNS_9allocatorIS1_EEEC1B8ue170006IDnS5_EEOT_OT0_, symObjAddr: 0x62DC, symBinAddr: 0x100007E38, symSize: 0x3C }
  - { offsetInCU: 0xF842, offset: 0xF842, size: 0x8, addend: 0x0, symName: __ZNSt3__114__split_bufferI7PersonaRNS_9allocatorIS1_EEE7__allocB8ue170006Ev, symObjAddr: 0x6358, symBinAddr: 0x100007EB4, symSize: 0x28 }
  - { offsetInCU: 0xF867, offset: 0xF867, size: 0x8, addend: 0x0, symName: __ZNSt3__114__split_bufferI7PersonaRNS_9allocatorIS1_EEE9__end_capB8ue170006Ev, symObjAddr: 0x6380, symBinAddr: 0x100007EDC, symSize: 0x28 }
  - { offsetInCU: 0xF88C, offset: 0xF88C, size: 0x8, addend: 0x0, symName: __ZNSt3__117__compressed_pairIP7PersonaRNS_9allocatorIS1_EEEC2B8ue170006IDnS5_EEOT_OT0_, symObjAddr: 0x63A8, symBinAddr: 0x100007F04, symSize: 0x48 }
  - { offsetInCU: 0xF8E3, offset: 0xF8E3, size: 0x8, addend: 0x0, symName: __ZNSt3__122__compressed_pair_elemIRNS_9allocatorI7PersonaEELi1ELb0EEC2B8ue170006IS4_vEEOT_, symObjAddr: 0x63F0, symBinAddr: 0x100007F4C, symSize: 0x20 }
  - { offsetInCU: 0xF924, offset: 0xF924, size: 0x8, addend: 0x0, symName: __ZNSt3__19allocatorI7PersonaE8allocateB8ue170006Em, symObjAddr: 0x6410, symBinAddr: 0x100007F6C, symSize: 0x5C }
  - { offsetInCU: 0xF957, offset: 0xF957, size: 0x8, addend: 0x0, symName: __ZNSt3__117__compressed_pairIP7PersonaRNS_9allocatorIS1_EEE6secondB8ue170006Ev, symObjAddr: 0x64EC, symBinAddr: 0x100008048, symSize: 0x28 }
  - { offsetInCU: 0xF97C, offset: 0xF97C, size: 0x8, addend: 0x0, symName: __ZNSt3__122__compressed_pair_elemIRNS_9allocatorI7PersonaEELi1ELb0EE5__getB8ue170006Ev, symObjAddr: 0x6514, symBinAddr: 0x100008070, symSize: 0x18 }
  - { offsetInCU: 0xF9A1, offset: 0xF9A1, size: 0x8, addend: 0x0, symName: __ZNSt3__117__compressed_pairIP7PersonaRNS_9allocatorIS1_EEE5firstB8ue170006Ev, symObjAddr: 0x652C, symBinAddr: 0x100008088, symSize: 0x24 }
  - { offsetInCU: 0xF9C6, offset: 0xF9C6, size: 0x8, addend: 0x0, symName: __ZNKSt3__16vectorI7PersonaNS_9allocatorIS1_EEE17__annotate_deleteB8ue170006Ev, symObjAddr: 0x6550, symBinAddr: 0x1000080AC, symSize: 0xD4 }
  - { offsetInCU: 0xF9EB, offset: 0xF9EB, size: 0x8, addend: 0x0, symName: __ZNSt3__116reverse_iteratorIP7PersonaEC1B8ue170006ES2_, symObjAddr: 0x6750, symBinAddr: 0x1000082AC, symSize: 0x34 }
  - { offsetInCU: 0xFA22, offset: 0xFA22, size: 0x8, addend: 0x0, symName: __ZNKSt3__116reverse_iteratorIP7PersonaE4baseB8ue170006Ev, symObjAddr: 0x6784, symBinAddr: 0x1000082E0, symSize: 0x18 }
  - { offsetInCU: 0xFA47, offset: 0xFA47, size: 0x8, addend: 0x0, symName: __ZNKSt3__16vectorI7PersonaNS_9allocatorIS1_EEE14__annotate_newB8ue170006Em, symObjAddr: 0x67D8, symBinAddr: 0x100008334, symSize: 0xC8 }
  - { offsetInCU: 0xFA7B, offset: 0xFA7B, size: 0x8, addend: 0x0, symName: __ZNKSt3__16vectorI7PersonaNS_9allocatorIS1_EEE31__annotate_contiguous_containerB8ue170006EPKvS6_S6_S6_, symObjAddr: 0x68A0, symBinAddr: 0x1000083FC, symSize: 0x20 }
  - { offsetInCU: 0xFAD0, offset: 0xFAD0, size: 0x8, addend: 0x0, symName: __ZNKSt3__16vectorI7PersonaNS_9allocatorIS1_EEE4dataB8ue170006Ev, symObjAddr: 0x68C0, symBinAddr: 0x10000841C, symSize: 0x28 }
  - { offsetInCU: 0xFAF5, offset: 0xFAF5, size: 0x8, addend: 0x0, symName: __ZNSt3__129_AllocatorDestroyRangeReverseINS_9allocatorI7PersonaEENS_16reverse_iteratorIPS2_EEEC1B8ue170006ERS3_RS6_S9_, symObjAddr: 0x6934, symBinAddr: 0x100008490, symSize: 0x44 }
  - { offsetInCU: 0xFB4B, offset: 0xFB4B, size: 0x8, addend: 0x0, symName: __ZNSt3__116allocator_traitsINS_9allocatorI7PersonaEEE9constructB8ue170006IS2_JS2_EvEEvRS3_PT_DpOT0_, symObjAddr: 0x69C0, symBinAddr: 0x10000851C, symSize: 0x34 }
  - { offsetInCU: 0xFBA2, offset: 0xFBA2, size: 0x8, addend: 0x0, symName: __ZNKSt3__116reverse_iteratorIP7PersonaEdeB8ue170006Ev, symObjAddr: 0x6A18, symBinAddr: 0x100008574, symSize: 0x28 }
  - { offsetInCU: 0xFBD5, offset: 0xFBD5, size: 0x8, addend: 0x0, symName: __ZNSt3__116reverse_iteratorIP7PersonaEppB8ue170006Ev, symObjAddr: 0x6A40, symBinAddr: 0x10000859C, symSize: 0x20 }
  - { offsetInCU: 0xFBFA, offset: 0xFBFA, size: 0x8, addend: 0x0, symName: __ZNSt3__128__exception_guard_exceptionsINS_29_AllocatorDestroyRangeReverseINS_9allocatorI7PersonaEENS_16reverse_iteratorIPS3_EEEEE10__completeB8ue170006Ev, symObjAddr: 0x6A60, symBinAddr: 0x1000085BC, symSize: 0x1C }
  - { offsetInCU: 0xFC1F, offset: 0xFC1F, size: 0x8, addend: 0x0, symName: __ZNSt3__128__exception_guard_exceptionsINS_29_AllocatorDestroyRangeReverseINS_9allocatorI7PersonaEENS_16reverse_iteratorIPS3_EEEEED1B8ue170006Ev, symObjAddr: 0x6A7C, symBinAddr: 0x1000085D8, symSize: 0x2C }
  - { offsetInCU: 0xFC48, offset: 0xFC48, size: 0x8, addend: 0x0, symName: __ZNSt3__128__exception_guard_exceptionsINS_29_AllocatorDestroyRangeReverseINS_9allocatorI7PersonaEENS_16reverse_iteratorIPS3_EEEEEC1B8ue170006ES8_, symObjAddr: 0x6AA8, symBinAddr: 0x100008604, symSize: 0x34 }
  - { offsetInCU: 0xFC80, offset: 0xFC80, size: 0x8, addend: 0x0, symName: __ZNSt3__128__exception_guard_exceptionsINS_29_AllocatorDestroyRangeReverseINS_9allocatorI7PersonaEENS_16reverse_iteratorIPS3_EEEEEC2B8ue170006ES8_, symObjAddr: 0x6ADC, symBinAddr: 0x100008638, symSize: 0x30 }
  - { offsetInCU: 0xFCB8, offset: 0xFCB8, size: 0x8, addend: 0x0, symName: __ZNSt3__129_AllocatorDestroyRangeReverseINS_9allocatorI7PersonaEENS_16reverse_iteratorIPS2_EEEC2B8ue170006ERS3_RS6_S9_, symObjAddr: 0x6B0C, symBinAddr: 0x100008668, symSize: 0x38 }
  - { offsetInCU: 0xFD0E, offset: 0xFD0E, size: 0x8, addend: 0x0, symName: __ZNSt3__19allocatorI7PersonaE9constructB8ue170006IS1_JS1_EEEvPT_DpOT0_, symObjAddr: 0x6B44, symBinAddr: 0x1000086A0, symSize: 0x30 }
  - { offsetInCU: 0xFD63, offset: 0xFD63, size: 0x8, addend: 0x0, symName: __ZN7PersonaC1EOS_, symObjAddr: 0x6B74, symBinAddr: 0x1000086D0, symSize: 0x34 }
  - { offsetInCU: 0xFD97, offset: 0xFD97, size: 0x8, addend: 0x0, symName: __ZN7PersonaC2EOS_, symObjAddr: 0x6BA8, symBinAddr: 0x100008704, symSize: 0xEC }
  - { offsetInCU: 0xFDCB, offset: 0xFDCB, size: 0x8, addend: 0x0, symName: __ZNSt3__112basic_stringIcNS_11char_traitsIcEENS_9allocatorIcEEEC1B8ue170006EOS5_, symObjAddr: 0x6C94, symBinAddr: 0x1000087F0, symSize: 0x34 }
  - { offsetInCU: 0xFE03, offset: 0xFE03, size: 0x8, addend: 0x0, symName: __ZNSt3__112basic_stringIcNS_11char_traitsIcEENS_9allocatorIcEEEC2B8ue170006EOS5_, symObjAddr: 0x6CC8, symBinAddr: 0x100008824, symSize: 0x50 }
  - { offsetInCU: 0xFE3B, offset: 0xFE3B, size: 0x8, addend: 0x0, symName: __ZNSt3__112basic_stringIcNS_11char_traitsIcEENS_9allocatorIcEEE14__default_initB8ue170006Ev, symObjAddr: 0x6D18, symBinAddr: 0x100008874, symSize: 0x40 }
  - { offsetInCU: 0xFE60, offset: 0xFE60, size: 0x8, addend: 0x0, symName: __ZNSt3__117__compressed_pairINS_12basic_stringIcNS_11char_traitsIcEENS_9allocatorIcEEE5__repES5_E5firstB8ue170006Ev, symObjAddr: 0x6D58, symBinAddr: 0x1000088B4, symSize: 0x24 }
  - { offsetInCU: 0xFE85, offset: 0xFE85, size: 0x8, addend: 0x0, symName: __ZNSt3__122__compressed_pair_elemINS_12basic_stringIcNS_11char_traitsIcEENS_9allocatorIcEEE5__repELi0ELb0EE5__getB8ue170006Ev, symObjAddr: 0x6D7C, symBinAddr: 0x1000088D8, symSize: 0x14 }
  - { offsetInCU: 0xFEAF, offset: 0xFEAF, size: 0x8, addend: 0x0, symName: __ZNSt3__119__to_address_helperINS_16reverse_iteratorIP7PersonaEEvE6__callB8ue170006ERKS4_, symObjAddr: 0x6D90, symBinAddr: 0x1000088EC, symSize: 0x38 }
  - { offsetInCU: 0xFED2, offset: 0xFED2, size: 0x8, addend: 0x0, symName: __ZNKSt3__116reverse_iteratorIP7PersonaEptB8ue170006Ev, symObjAddr: 0x6DC8, symBinAddr: 0x100008924, symSize: 0x24 }
  - { offsetInCU: 0xFEF7, offset: 0xFEF7, size: 0x8, addend: 0x0, symName: __ZNSt3__128__exception_guard_exceptionsINS_29_AllocatorDestroyRangeReverseINS_9allocatorI7PersonaEENS_16reverse_iteratorIPS3_EEEEED2B8ue170006Ev, symObjAddr: 0x6DEC, symBinAddr: 0x100008948, symSize: 0x50 }
  - { offsetInCU: 0xFF20, offset: 0xFF20, size: 0x8, addend: 0x0, symName: __ZNKSt3__129_AllocatorDestroyRangeReverseINS_9allocatorI7PersonaEENS_16reverse_iteratorIPS2_EEEclB8ue170006Ev, symObjAddr: 0x6E3C, symBinAddr: 0x100008998, symSize: 0xB4 }
  - { offsetInCU: 0xFF46, offset: 0xFF46, size: 0x8, addend: 0x0, symName: __ZNSt3__116reverse_iteratorINS0_IP7PersonaEEEC1B8ue170006ES3_, symObjAddr: 0x6F60, symBinAddr: 0x100008ABC, symSize: 0x3C }
  - { offsetInCU: 0xFF7D, offset: 0xFF7D, size: 0x8, addend: 0x0, symName: __ZNSt3__116allocator_traitsINS_9allocatorI7PersonaEEE7destroyB8ue170006IS2_vEEvRS3_PT_, symObjAddr: 0x6FFC, symBinAddr: 0x100008B58, symSize: 0x2C }
  - { offsetInCU: 0xFFBA, offset: 0xFFBA, size: 0x8, addend: 0x0, symName: __ZNSt3__116reverse_iteratorINS0_IP7PersonaEEEppB8ue170006Ev, symObjAddr: 0x704C, symBinAddr: 0x100008BA8, symSize: 0x30 }
  - { offsetInCU: 0xFFDF, offset: 0xFFDF, size: 0x8, addend: 0x0, symName: __ZNKSt3__116reverse_iteratorINS0_IP7PersonaEEE4baseB8ue170006Ev, symObjAddr: 0x707C, symBinAddr: 0x100008BD8, symSize: 0x24 }
  - { offsetInCU: 0x10004, offset: 0x10004, size: 0x8, addend: 0x0, symName: __ZNSt3__19allocatorI7PersonaE7destroyB8ue170006EPS1_, symObjAddr: 0x70A0, symBinAddr: 0x100008BFC, symSize: 0x28 }
  - { offsetInCU: 0x1003C, offset: 0x1003C, size: 0x8, addend: 0x0, symName: __ZNSt3__119__to_address_helperINS_16reverse_iteratorINS1_IP7PersonaEEEEvE6__callB8ue170006ERKS5_, symObjAddr: 0x70C8, symBinAddr: 0x100008C24, symSize: 0x38 }
  - { offsetInCU: 0x1005F, offset: 0x1005F, size: 0x8, addend: 0x0, symName: __ZNKSt3__116reverse_iteratorINS0_IP7PersonaEEEptB8ue170006Ev, symObjAddr: 0x7100, symBinAddr: 0x100008C5C, symSize: 0x24 }
  - { offsetInCU: 0x10084, offset: 0x10084, size: 0x8, addend: 0x0, symName: __ZNKSt3__116reverse_iteratorINS0_IP7PersonaEEEdeB8ue170006Ev, symObjAddr: 0x7124, symBinAddr: 0x100008C80, symSize: 0x34 }
  - { offsetInCU: 0x100B7, offset: 0x100B7, size: 0x8, addend: 0x0, symName: __ZNSt3__116reverse_iteratorIP7PersonaEmmB8ue170006Ev, symObjAddr: 0x7158, symBinAddr: 0x100008CB4, symSize: 0x20 }
  - { offsetInCU: 0x100DC, offset: 0x100DC, size: 0x8, addend: 0x0, symName: __ZNSt3__116reverse_iteratorINS0_IP7PersonaEEEC2B8ue170006ES3_, symObjAddr: 0x7178, symBinAddr: 0x100008CD4, symSize: 0x2C }
  - { offsetInCU: 0x10113, offset: 0x10113, size: 0x8, addend: 0x0, symName: __ZNSt3__116reverse_iteratorIP7PersonaEC2B8ue170006ES2_, symObjAddr: 0x71A4, symBinAddr: 0x100008D00, symSize: 0x28 }
  - { offsetInCU: 0x1014A, offset: 0x1014A, size: 0x8, addend: 0x0, symName: __ZNSt3__114__split_bufferI7PersonaRNS_9allocatorIS1_EEED2Ev, symObjAddr: 0x71CC, symBinAddr: 0x100008D28, symSize: 0x8C }
  - { offsetInCU: 0x10175, offset: 0x10175, size: 0x8, addend: 0x0, symName: __ZNSt3__114__split_bufferI7PersonaRNS_9allocatorIS1_EEE5clearB8ue170006Ev, symObjAddr: 0x7258, symBinAddr: 0x100008DB4, symSize: 0x28 }
  - { offsetInCU: 0x1019A, offset: 0x1019A, size: 0x8, addend: 0x0, symName: __ZNSt3__116allocator_traitsINS_9allocatorI7PersonaEEE10deallocateB8ue170006ERS3_PS2_m, symObjAddr: 0x7280, symBinAddr: 0x100008DDC, symSize: 0x34 }
  - { offsetInCU: 0x101DC, offset: 0x101DC, size: 0x8, addend: 0x0, symName: __ZNKSt3__114__split_bufferI7PersonaRNS_9allocatorIS1_EEE8capacityB8ue170006Ev, symObjAddr: 0x72B4, symBinAddr: 0x100008E10, symSize: 0x40 }
  - { offsetInCU: 0x10201, offset: 0x10201, size: 0x8, addend: 0x0, symName: __ZNSt3__114__split_bufferI7PersonaRNS_9allocatorIS1_EEE17__destruct_at_endB8ue170006EPS1_, symObjAddr: 0x72F4, symBinAddr: 0x100008E50, symSize: 0x2C }
  - { offsetInCU: 0x10234, offset: 0x10234, size: 0x8, addend: 0x0, symName: __ZNSt3__114__split_bufferI7PersonaRNS_9allocatorIS1_EEE17__destruct_at_endB8ue170006EPS1_NS_17integral_constantIbLb0EEE, symObjAddr: 0x7320, symBinAddr: 0x100008E7C, symSize: 0x80 }
  - { offsetInCU: 0x10273, offset: 0x10273, size: 0x8, addend: 0x0, symName: __ZNSt3__19allocatorI7PersonaE10deallocateB8ue170006EPS1_m, symObjAddr: 0x73A0, symBinAddr: 0x100008EFC, symSize: 0x44 }
  - { offsetInCU: 0x102B4, offset: 0x102B4, size: 0x8, addend: 0x0, symName: __ZNKSt3__114__split_bufferI7PersonaRNS_9allocatorIS1_EEE9__end_capB8ue170006Ev, symObjAddr: 0x7460, symBinAddr: 0x100008FBC, symSize: 0x28 }
  - { offsetInCU: 0x102D9, offset: 0x102D9, size: 0x8, addend: 0x0, symName: __ZNKSt3__117__compressed_pairIP7PersonaRNS_9allocatorIS1_EEE5firstB8ue170006Ev, symObjAddr: 0x7488, symBinAddr: 0x100008FE4, symSize: 0x24 }
  - { offsetInCU: 0x10308, offset: 0x10308, size: 0x8, addend: 0x0, symName: __ZZN5Lista12populateListEvENKUlRK7PersonaS2_E_clES2_S2_, symObjAddr: 0x7B08, symBinAddr: 0x100009664, symSize: 0x94 }
  - { offsetInCU: 0x1034F, offset: 0x1034F, size: 0x8, addend: 0x0, symName: __ZNSt3__18_IterOpsINS_17_ClassicAlgPolicyEE9iter_swapB8ue170006IRP7PersonaS6_EEvOT_OT0_, symObjAddr: 0x7B9C, symBinAddr: 0x1000096F8, symSize: 0x34 }
  - { offsetInCU: 0x10397, offset: 0x10397, size: 0x8, addend: 0x0, symName: __ZNSt3__18_IterOpsINS_17_ClassicAlgPolicyEE9iter_swapB8ue170006IRP7PersonaS5_EEvOT_OT0_, symObjAddr: 0x81D8, symBinAddr: 0x100009D34, symSize: 0x34 }
  - { offsetInCU: 0x103DA, offset: 0x103DA, size: 0x8, addend: 0x0, symName: __ZNKSt3__112basic_stringIcNS_11char_traitsIcEENS_9allocatorIcEEE7compareB8ue170006ERKS5_, symObjAddr: 0x8ED0, symBinAddr: 0x10000AA2C, symSize: 0x4C }
  - { offsetInCU: 0x1040F, offset: 0x1040F, size: 0x8, addend: 0x0, symName: __ZNKSt3__112basic_stringIcNS_11char_traitsIcEENS_9allocatorIcEEE7compareINS_17basic_string_viewIcS2_EELi0EEEiRKT_, symObjAddr: 0x8F1C, symBinAddr: 0x10000AA78, symSize: 0x12C }
  - { offsetInCU: 0x10490, offset: 0x10490, size: 0x8, addend: 0x0, symName: __ZNKSt3__112basic_stringIcNS_11char_traitsIcEENS_9allocatorIcEEEcvNS_17basic_string_viewIcS2_EEB8ue170006Ev, symObjAddr: 0x9048, symBinAddr: 0x10000ABA4, symSize: 0x50 }
  - { offsetInCU: 0x104B5, offset: 0x104B5, size: 0x8, addend: 0x0, symName: __ZNKSt3__117basic_string_viewIcNS_11char_traitsIcEEE4sizeB8ue170006Ev, symObjAddr: 0x9098, symBinAddr: 0x10000ABF4, symSize: 0x18 }
  - { offsetInCU: 0x104DA, offset: 0x104DA, size: 0x8, addend: 0x0, symName: __ZNSt3__111char_traitsIcE7compareB8ue170006EPKcS3_m, symObjAddr: 0x90B0, symBinAddr: 0x10000AC0C, symSize: 0x34 }
  - { offsetInCU: 0x10519, offset: 0x10519, size: 0x8, addend: 0x0, symName: __ZNKSt3__112basic_stringIcNS_11char_traitsIcEENS_9allocatorIcEEE4dataB8ue170006Ev, symObjAddr: 0x90E4, symBinAddr: 0x10000AC40, symSize: 0x28 }
  - { offsetInCU: 0x1053E, offset: 0x1053E, size: 0x8, addend: 0x0, symName: __ZNKSt3__117basic_string_viewIcNS_11char_traitsIcEEE4dataB8ue170006Ev, symObjAddr: 0x910C, symBinAddr: 0x10000AC68, symSize: 0x18 }
  - { offsetInCU: 0x10563, offset: 0x10563, size: 0x8, addend: 0x0, symName: __ZNSt3__117basic_string_viewIcNS_11char_traitsIcEEEC1B8ue170006EPKcm, symObjAddr: 0x9138, symBinAddr: 0x10000AC94, symSize: 0x3C }
  - { offsetInCU: 0x105AA, offset: 0x105AA, size: 0x8, addend: 0x0, symName: __ZNSt3__117basic_string_viewIcNS_11char_traitsIcEEEC2B8ue170006EPKcm, symObjAddr: 0x9174, symBinAddr: 0x10000ACD0, symSize: 0x2C }
  - { offsetInCU: 0x105F1, offset: 0x105F1, size: 0x8, addend: 0x0, symName: __ZNSt3__18_IterOpsINS_17_ClassicAlgPolicyEE11__iter_moveB8ue170006IRP7PersonaEENS_9enable_ifIXsr12is_referenceIDTdeclsr3stdE7declvalIRT_EEEEE5valueEDTclsr3stdE4movedeclsr3stdE7declvalIS9_EEEEE4typeEOS8_, symObjAddr: 0x93C4, symBinAddr: 0x10000AF20, symSize: 0x28 }
  - { offsetInCU: 0x1061D, offset: 0x1061D, size: 0x8, addend: 0x0, symName: __ZNSt3__18_IterOpsINS_17_ClassicAlgPolicyEE25__validate_iter_referenceB8ue170006IRP7PersonaEEvv, symObjAddr: 0x93EC, symBinAddr: 0x10000AF48, symSize: 0x4 }
  - { offsetInCU: 0x1063B, offset: 0x1063B, size: 0x8, addend: 0x0, symName: __ZNSt3__18_IterOpsINS_17_ClassicAlgPolicyEE4nextB8ue170006IP7PersonaEET_S6_S6_, symObjAddr: 0x93F0, symBinAddr: 0x10000AF4C, symSize: 0x18 }
  - { offsetInCU: 0x10672, offset: 0x10672, size: 0x8, addend: 0x0, symName: __ZNSt3__18_IterOpsINS_17_ClassicAlgPolicyEE9iter_swapB8ue170006IP7PersonaS5_EEvOT_OT0_, symObjAddr: 0xA4E0, symBinAddr: 0x10000C03C, symSize: 0x34 }
  - { offsetInCU: 0x106D3, offset: 0x106D3, size: 0x8, addend: 0x0, symName: __ZNSt3__14pairIP7PersonabEC1B8ue170006IRS2_RbLPv0EEEOT_OT0_, symObjAddr: 0xA530, symBinAddr: 0x10000C08C, symSize: 0x3C }
  - { offsetInCU: 0x10730, offset: 0x10730, size: 0x8, addend: 0x0, symName: __ZNSt3__14pairIP7PersonabEC2B8ue170006IRS2_RbLPv0EEEOT_OT0_, symObjAddr: 0xA56C, symBinAddr: 0x10000C0C8, symSize: 0x38 }
  - { offsetInCU: 0x1078D, offset: 0x1078D, size: 0x8, addend: 0x0, symName: __ZNSt3__118__unwrap_iter_implINS_11__wrap_iterIP7PersonaEELb1EE8__unwrapB8ue170006ES4_, symObjAddr: 0xA5A4, symBinAddr: 0x10000C100, symSize: 0x28 }
  - { offsetInCU: 0x107BA, offset: 0x107BA, size: 0x8, addend: 0x0, symName: __ZNSt3__119__to_address_helperINS_11__wrap_iterIP7PersonaEEvE6__callB8ue170006ERKS4_, symObjAddr: 0xA5F0, symBinAddr: 0x10000C14C, symSize: 0x30 }
  - { offsetInCU: 0x107DD, offset: 0x107DD, size: 0x8, addend: 0x0, symName: __ZNSt3__114pointer_traitsINS_11__wrap_iterIP7PersonaEEE10to_addressB8ue170006ES4_, symObjAddr: 0xA620, symBinAddr: 0x10000C17C, symSize: 0x2C }
  - { offsetInCU: 0x10800, offset: 0x10800, size: 0x8, addend: 0x0, symName: __ZNKSt3__111__wrap_iterIP7PersonaE4baseB8ue170006Ev, symObjAddr: 0xA64C, symBinAddr: 0x10000C1A8, symSize: 0x18 }
  - { offsetInCU: 0x10825, offset: 0x10825, size: 0x8, addend: 0x0, symName: __ZNSt3__16vectorI7PersonaNS_9allocatorIS1_EEE11__make_iterB8ue170006EPS1_, symObjAddr: 0xA664, symBinAddr: 0x10000C1C0, symSize: 0x30 }
  - { offsetInCU: 0x10859, offset: 0x10859, size: 0x8, addend: 0x0, symName: __ZNSt3__111__wrap_iterIP7PersonaEC1B8ue170006ES2_, symObjAddr: 0xA694, symBinAddr: 0x10000C1F0, symSize: 0x34 }
  - { offsetInCU: 0x10890, offset: 0x10890, size: 0x8, addend: 0x0, symName: __ZNSt3__111__wrap_iterIP7PersonaEC2B8ue170006ES2_, symObjAddr: 0xA6C8, symBinAddr: 0x10000C224, symSize: 0x20 }
  - { offsetInCU: 0x108CC, offset: 0x108CC, size: 0x8, addend: 0x0, symName: __ZN4NodoC1Ev, symObjAddr: 0xA730, symBinAddr: 0x10000C28C, symSize: 0x2C }
  - { offsetInCU: 0x108F7, offset: 0x108F7, size: 0x8, addend: 0x0, symName: __ZN7PersonaaSERKS_, symObjAddr: 0xA75C, symBinAddr: 0x10000C2B8, symSize: 0xEC }
  - { offsetInCU: 0x10927, offset: 0x10927, size: 0x8, addend: 0x0, symName: __ZN4NodoC2Ev, symObjAddr: 0xA848, symBinAddr: 0x10000C3A4, symSize: 0x2C }
  - { offsetInCU: 0x10952, offset: 0x10952, size: 0x8, addend: 0x0, symName: __ZNSt3__16vectorI7PersonaNS_9allocatorIS1_EEED2B8ue170006Ev, symObjAddr: 0xA874, symBinAddr: 0x10000C3D0, symSize: 0x44 }
  - { offsetInCU: 0x1097B, offset: 0x1097B, size: 0x8, addend: 0x0, symName: __ZNSt3__16vectorI7PersonaNS_9allocatorIS1_EEE16__destroy_vectorC1B8ue170006ERS4_, symObjAddr: 0xA8B8, symBinAddr: 0x10000C414, symSize: 0x34 }
  - { offsetInCU: 0x109B3, offset: 0x109B3, size: 0x8, addend: 0x0, symName: __ZNSt3__16vectorI7PersonaNS_9allocatorIS1_EEE16__destroy_vectorclB8ue170006Ev, symObjAddr: 0xA8EC, symBinAddr: 0x10000C448, symSize: 0x90 }
  - { offsetInCU: 0x109D8, offset: 0x109D8, size: 0x8, addend: 0x0, symName: __ZNSt3__16vectorI7PersonaNS_9allocatorIS1_EEE16__destroy_vectorC2B8ue170006ERS4_, symObjAddr: 0xA97C, symBinAddr: 0x10000C4D8, symSize: 0x20 }
  - { offsetInCU: 0x10A10, offset: 0x10A10, size: 0x8, addend: 0x0, symName: __ZNSt3__16vectorI7PersonaNS_9allocatorIS1_EEE7__clearB8ue170006Ev, symObjAddr: 0xA99C, symBinAddr: 0x10000C4F8, symSize: 0x28 }
  - { offsetInCU: 0x10A35, offset: 0x10A35, size: 0x8, addend: 0x0, symName: __ZNSt3__16vectorI7PersonaNS_9allocatorIS1_EEE22__base_destruct_at_endB8ue170006EPS1_, symObjAddr: 0xA9C4, symBinAddr: 0x10000C520, symSize: 0x8C }
  - { offsetInCU: 0x10A78, offset: 0x10A78, size: 0x8, addend: 0x0, symName: __ZN7PersonaC2Ev, symObjAddr: 0xAA50, symBinAddr: 0x10000C5AC, symSize: 0x84 }
  - { offsetInCU: 0x10AA1, offset: 0x10AA1, size: 0x8, addend: 0x0, symName: __ZN7PersonaD2Ev, symObjAddr: 0xAAD4, symBinAddr: 0x10000C630, symSize: 0x84 }
  - { offsetInCU: 0x10ACC, offset: 0x10ACC, size: 0x8, addend: 0x0, symName: __ZNKSt3__112basic_stringIcNS_11char_traitsIcEENS_9allocatorIcEEE5c_strB8ue170006Ev, symObjAddr: 0xAB58, symBinAddr: 0x10000C6B4, symSize: 0x24 }
  - { offsetInCU: 0x10AF1, offset: 0x10AF1, size: 0x8, addend: 0x0, symName: __ZN7PersonaC2ERKS_, symObjAddr: 0xABB0, symBinAddr: 0x10000C70C, symSize: 0x1F0 }
  - { offsetInCU: 0x10B25, offset: 0x10B25, size: 0x8, addend: 0x0, symName: __ZN4NodoD1Ev, symObjAddr: 0xADA0, symBinAddr: 0x10000C8FC, symSize: 0x2C }
  - { offsetInCU: 0x10B50, offset: 0x10B50, size: 0x8, addend: 0x0, symName: __ZN5Lista18eliminarEmpleadoDBEi, symObjAddr: 0xADCC, symBinAddr: 0x10000C928, symSize: 0x1D8 }
  - { offsetInCU: 0x10B9F, offset: 0x10B9F, size: 0x8, addend: 0x0, symName: __ZN4NodoD2Ev, symObjAddr: 0xAFA4, symBinAddr: 0x10000CB00, symSize: 0x2C }
  - { offsetInCU: 0x10BCA, offset: 0x10BCA, size: 0x8, addend: 0x0, symName: __ZNSt3__112basic_stringIcNS_11char_traitsIcEENS_9allocatorIcEEEC2B8ue170006Ev, symObjAddr: 0xB118, symBinAddr: 0x10000CC74, symSize: 0x44 }
  - { offsetInCU: 0x10BF3, offset: 0x10BF3, size: 0x8, addend: 0x0, symName: __ZNSt3__117__compressed_pairINS_12basic_stringIcNS_11char_traitsIcEENS_9allocatorIcEEE5__repES5_EC1B8ue170006INS_18__default_init_tagESA_EEOT_OT0_, symObjAddr: 0xB15C, symBinAddr: 0x10000CCB8, symSize: 0x3C }
  - { offsetInCU: 0x10C4A, offset: 0x10C4A, size: 0x8, addend: 0x0, symName: __ZNSt3__117__compressed_pairINS_12basic_stringIcNS_11char_traitsIcEENS_9allocatorIcEEE5__repES5_EC2B8ue170006INS_18__default_init_tagESA_EEOT_OT0_, symObjAddr: 0xB198, symBinAddr: 0x10000CCF4, symSize: 0x3C }
  - { offsetInCU: 0x10CA1, offset: 0x10CA1, size: 0x8, addend: 0x0, symName: __ZNSt3__122__compressed_pair_elemINS_12basic_stringIcNS_11char_traitsIcEENS_9allocatorIcEEE5__repELi0ELb0EEC2B8ue170006ENS_18__default_init_tagE, symObjAddr: 0xB1D4, symBinAddr: 0x10000CD30, symSize: 0x14 }
  - { offsetInCU: 0x10CD5, offset: 0x10CD5, size: 0x8, addend: 0x0, symName: __ZNSt3__122__compressed_pair_elemINS_9allocatorIcEELi1ELb1EEC2B8ue170006ENS_18__default_init_tagE, symObjAddr: 0xB1E8, symBinAddr: 0x10000CD44, symSize: 0x2C }
  - { offsetInCU: 0x10D09, offset: 0x10D09, size: 0x8, addend: 0x0, symName: __ZNSt3__19allocatorIcEC2B8ue170006Ev, symObjAddr: 0xB214, symBinAddr: 0x10000CD70, symSize: 0x2C }
  - { offsetInCU: 0x10D32, offset: 0x10D32, size: 0x8, addend: 0x0, symName: __ZNSt3__116__non_trivial_ifILb1ENS_9allocatorIcEEEC2B8ue170006Ev, symObjAddr: 0xB240, symBinAddr: 0x10000CD9C, symSize: 0x14 }
  - { offsetInCU: 0x10D5B, offset: 0x10D5B, size: 0x8, addend: 0x0, symName: __ZNSt3__112basic_stringIcNS_11char_traitsIcEENS_9allocatorIcEEEC2B8ue170006ILi0EEEPKc, symObjAddr: 0xB254, symBinAddr: 0x10000CDB0, symSize: 0x58 }
  - { offsetInCU: 0x10D99, offset: 0x10D99, size: 0x8, addend: 0x0, symName: __ZNSt3__111char_traitsIcE6lengthB8ue170006EPKc, symObjAddr: 0xB2AC, symBinAddr: 0x10000CE08, symSize: 0x34 }
  - { offsetInCU: 0x10DDA, offset: 0x10DDA, size: 0x8, addend: 0x0, symName: __ZNKSt3__113basic_ostreamIcNS_11char_traitsIcEEE6sentrycvbB8ue170006Ev, symObjAddr: 0xB4F0, symBinAddr: 0x10000D04C, symSize: 0x1C }
  - { offsetInCU: 0x10DFF, offset: 0x10DFF, size: 0x8, addend: 0x0, symName: __ZNSt3__119ostreambuf_iteratorIcNS_11char_traitsIcEEEC1B8ue170006ERNS_13basic_ostreamIcS2_EE, symObjAddr: 0xB74C, symBinAddr: 0x10000D2A8, symSize: 0x34 }
  - { offsetInCU: 0x10E36, offset: 0x10E36, size: 0x8, addend: 0x0, symName: __ZNKSt3__18ios_base5flagsB8ue170006Ev, symObjAddr: 0xB780, symBinAddr: 0x10000D2DC, symSize: 0x18 }
  - { offsetInCU: 0x10E5D, offset: 0x10E5D, size: 0x8, addend: 0x0, symName: __ZNKSt3__19basic_iosIcNS_11char_traitsIcEEE4fillB8ue170006Ev, symObjAddr: 0xB798, symBinAddr: 0x10000D2F4, symSize: 0x64 }
  - { offsetInCU: 0x10E83, offset: 0x10E83, size: 0x8, addend: 0x0, symName: __ZNKSt3__119ostreambuf_iteratorIcNS_11char_traitsIcEEE6failedB8ue170006Ev, symObjAddr: 0xB7FC, symBinAddr: 0x10000D358, symSize: 0x24 }
  - { offsetInCU: 0x10EA8, offset: 0x10EA8, size: 0x8, addend: 0x0, symName: __ZNSt3__19basic_iosIcNS_11char_traitsIcEEE8setstateB8ue170006Ej, symObjAddr: 0xB820, symBinAddr: 0x10000D37C, symSize: 0x2C }
  - { offsetInCU: 0x10EDC, offset: 0x10EDC, size: 0x8, addend: 0x0, symName: __ZNKSt3__18ios_base5widthB8ue170006Ev, symObjAddr: 0xB84C, symBinAddr: 0x10000D3A8, symSize: 0x18 }
  - { offsetInCU: 0x10F03, offset: 0x10F03, size: 0x8, addend: 0x0, symName: __ZNSt3__115basic_streambufIcNS_11char_traitsIcEEE5sputnB8ue170006EPKcl, symObjAddr: 0xB864, symBinAddr: 0x10000D3C0, symSize: 0x3C }
  - { offsetInCU: 0x10F44, offset: 0x10F44, size: 0x8, addend: 0x0, symName: __ZNSt3__112basic_stringIcNS_11char_traitsIcEENS_9allocatorIcEEEC1B8ue170006Emc, symObjAddr: 0xB8A0, symBinAddr: 0x10000D3FC, symSize: 0x3C }
  - { offsetInCU: 0x10F8B, offset: 0x10F8B, size: 0x8, addend: 0x0, symName: __ZNSt3__18ios_base5widthB8ue170006El, symObjAddr: 0xB8DC, symBinAddr: 0x10000D438, symSize: 0x2C }
  - { offsetInCU: 0x10FD0, offset: 0x10FD0, size: 0x8, addend: 0x0, symName: __ZNSt3__112basic_stringIcNS_11char_traitsIcEENS_9allocatorIcEEEC2B8ue170006Emc, symObjAddr: 0xB908, symBinAddr: 0x10000D464, symSize: 0x4C }
  - { offsetInCU: 0x11017, offset: 0x11017, size: 0x8, addend: 0x0, symName: __ZNSt3__119ostreambuf_iteratorIcNS_11char_traitsIcEEEC2B8ue170006ERNS_13basic_ostreamIcS2_EE, symObjAddr: 0xB954, symBinAddr: 0x10000D4B0, symSize: 0x54 }
  - { offsetInCU: 0x1104E, offset: 0x1104E, size: 0x8, addend: 0x0, symName: __ZNKSt3__19basic_iosIcNS_11char_traitsIcEEE5rdbufB8ue170006Ev, symObjAddr: 0xB9A8, symBinAddr: 0x10000D504, symSize: 0x24 }
  - { offsetInCU: 0x11074, offset: 0x11074, size: 0x8, addend: 0x0, symName: __ZNKSt3__18ios_base5rdbufB8ue170006Ev, symObjAddr: 0xB9CC, symBinAddr: 0x10000D528, symSize: 0x18 }
  - { offsetInCU: 0x11099, offset: 0x11099, size: 0x8, addend: 0x0, symName: __ZNSt3__111char_traitsIcE11eq_int_typeB8ue170006Eii, symObjAddr: 0xB9E4, symBinAddr: 0x10000D540, symSize: 0x28 }
  - { offsetInCU: 0x110CC, offset: 0x110CC, size: 0x8, addend: 0x0, symName: __ZNSt3__111char_traitsIcE3eofB8ue170006Ev, symObjAddr: 0xBA0C, symBinAddr: 0x10000D568, symSize: 0x8 }
  - { offsetInCU: 0x110E0, offset: 0x110E0, size: 0x8, addend: 0x0, symName: __ZNKSt3__19basic_iosIcNS_11char_traitsIcEEE5widenB8ue170006Ec, symObjAddr: 0xBA14, symBinAddr: 0x10000D570, symSize: 0x84 }
  - { offsetInCU: 0x11142, offset: 0x11142, size: 0x8, addend: 0x0, symName: __ZNKSt3__15ctypeIcE5widenB8ue170006Ec, symObjAddr: 0xBAC4, symBinAddr: 0x10000D620, symSize: 0x38 }
  - { offsetInCU: 0x11176, offset: 0x11176, size: 0x8, addend: 0x0, symName: __ZNSt3__18ios_base8setstateB8ue170006Ej, symObjAddr: 0xBAFC, symBinAddr: 0x10000D658, symSize: 0x34 }
  - { offsetInCU: 0x111AB, offset: 0x111AB, size: 0x8, addend: 0x0, symName: __ZNKSt3__19basic_iosIcNS_11char_traitsIcEEE4failB8ue170006Ev, symObjAddr: 0xBB30, symBinAddr: 0x10000D68C, symSize: 0x28 }
  - { offsetInCU: 0x111D0, offset: 0x111D0, size: 0x8, addend: 0x0, symName: __ZNKSt3__18ios_base4failB8ue170006Ev, symObjAddr: 0xBB58, symBinAddr: 0x10000D6B4, symSize: 0x28 }
  - { offsetInCU: 0x11284, offset: 0x11284, size: 0x8, addend: 0x0, symName: __ZNKSt3__113basic_istreamIcNS_11char_traitsIcEEE6sentrycvbB8ue170006Ev, symObjAddr: 0xBDB8, symBinAddr: 0x10000D914, symSize: 0x1C }
  - { offsetInCU: 0x112A9, offset: 0x112A9, size: 0x8, addend: 0x0, symName: __ZNSt3__112basic_stringIcNS_11char_traitsIcEENS_9allocatorIcEEE5clearB8ue170006Ev, symObjAddr: 0xBDD4, symBinAddr: 0x10000D930, symSize: 0x78 }
  - { offsetInCU: 0x112CF, offset: 0x112CF, size: 0x8, addend: 0x0, symName: __ZNSt3__115basic_streambufIcNS_11char_traitsIcEEE6sbumpcB8ue170006Ev, symObjAddr: 0xBE4C, symBinAddr: 0x10000D9A8, symSize: 0x78 }
  - { offsetInCU: 0x112F4, offset: 0x112F4, size: 0x8, addend: 0x0, symName: __ZNSt3__111char_traitsIcE12to_char_typeB8ue170006Ei, symObjAddr: 0xBEC4, symBinAddr: 0x10000DA20, symSize: 0x18 }
  - { offsetInCU: 0x11317, offset: 0x11317, size: 0x8, addend: 0x0, symName: __ZNSt3__111char_traitsIcE2eqEcc, symObjAddr: 0xBEDC, symBinAddr: 0x10000DA38, symSize: 0x28 }
  - { offsetInCU: 0x11348, offset: 0x11348, size: 0x8, addend: 0x0, symName: __ZNKSt3__112basic_stringIcNS_11char_traitsIcEENS_9allocatorIcEEE8max_sizeB8ue170006Ev, symObjAddr: 0xBF04, symBinAddr: 0x10000DA60, symSize: 0xAC }
  - { offsetInCU: 0x11399, offset: 0x11399, size: 0x8, addend: 0x0, symName: __ZNSt3__18ios_base18__setstate_nothrowB8ue170006Ej, symObjAddr: 0xBFB0, symBinAddr: 0x10000DB0C, symSize: 0x64 }
  - { offsetInCU: 0x113CD, offset: 0x113CD, size: 0x8, addend: 0x0, symName: __ZNKSt3__19basic_iosIcNS_11char_traitsIcEEE10exceptionsB8ue170006Ev, symObjAddr: 0xC014, symBinAddr: 0x10000DB70, symSize: 0x24 }
  - { offsetInCU: 0x113F2, offset: 0x113F2, size: 0x8, addend: 0x0, symName: __ZNSt3__111char_traitsIcE6assignB8ue170006ERcRKc, symObjAddr: 0xC038, symBinAddr: 0x10000DB94, symSize: 0x24 }
  - { offsetInCU: 0x11423, offset: 0x11423, size: 0x8, addend: 0x0, symName: __ZNSt3__112basic_stringIcNS_11char_traitsIcEENS_9allocatorIcEEE18__get_long_pointerB8ue170006Ev, symObjAddr: 0xC05C, symBinAddr: 0x10000DBB8, symSize: 0x28 }
  - { offsetInCU: 0x11448, offset: 0x11448, size: 0x8, addend: 0x0, symName: __ZNSt3__112basic_stringIcNS_11char_traitsIcEENS_9allocatorIcEEE15__set_long_sizeB8ue170006Em, symObjAddr: 0xC084, symBinAddr: 0x10000DBE0, symSize: 0x38 }
  - { offsetInCU: 0x1147C, offset: 0x1147C, size: 0x8, addend: 0x0, symName: __ZNSt3__112basic_stringIcNS_11char_traitsIcEENS_9allocatorIcEEE19__get_short_pointerB8ue170006Ev, symObjAddr: 0xC0BC, symBinAddr: 0x10000DC18, symSize: 0x28 }
  - { offsetInCU: 0x114A1, offset: 0x114A1, size: 0x8, addend: 0x0, symName: __ZNSt3__112basic_stringIcNS_11char_traitsIcEENS_9allocatorIcEEE16__set_short_sizeB8ue170006Em, symObjAddr: 0xC0E4, symBinAddr: 0x10000DC40, symSize: 0x78 }
  - { offsetInCU: 0x114D5, offset: 0x114D5, size: 0x8, addend: 0x0, symName: __ZNSt3__114pointer_traitsIPcE10pointer_toB8ue170006ERc, symObjAddr: 0xC15C, symBinAddr: 0x10000DCB8, symSize: 0x14 }
  - { offsetInCU: 0x114F8, offset: 0x114F8, size: 0x8, addend: 0x0, symName: __ZNSt3__111char_traitsIcE11to_int_typeB8ue170006Ec, symObjAddr: 0xC170, symBinAddr: 0x10000DCCC, symSize: 0x14 }
  - { offsetInCU: 0x11526, offset: 0x11526, size: 0x8, addend: 0x0, symName: __ZNSt3__116allocator_traitsINS_9allocatorIcEEE8max_sizeB8ue170006IS2_vEEmRKS2_, symObjAddr: 0xC184, symBinAddr: 0x10000DCE0, symSize: 0x24 }
  - { offsetInCU: 0x11554, offset: 0x11554, size: 0x8, addend: 0x0, symName: __ZNKSt3__112basic_stringIcNS_11char_traitsIcEENS_9allocatorIcEEE7__allocB8ue170006Ev, symObjAddr: 0xC1A8, symBinAddr: 0x10000DD04, symSize: 0x24 }
  - { offsetInCU: 0x11579, offset: 0x11579, size: 0x8, addend: 0x0, symName: __ZNSt3__114numeric_limitsImE3maxB8ue170006Ev, symObjAddr: 0xC1CC, symBinAddr: 0x10000DD28, symSize: 0x14 }
  - { offsetInCU: 0x1158D, offset: 0x1158D, size: 0x8, addend: 0x0, symName: __ZNKSt3__19allocatorIcE8max_sizeB8ue170006Ev, symObjAddr: 0xC1E0, symBinAddr: 0x10000DD3C, symSize: 0x14 }
  - { offsetInCU: 0x115B2, offset: 0x115B2, size: 0x8, addend: 0x0, symName: __ZNKSt3__117__compressed_pairINS_12basic_stringIcNS_11char_traitsIcEENS_9allocatorIcEEE5__repES5_E6secondB8ue170006Ev, symObjAddr: 0xC1F4, symBinAddr: 0x10000DD50, symSize: 0x24 }
  - { offsetInCU: 0x115D7, offset: 0x115D7, size: 0x8, addend: 0x0, symName: __ZNKSt3__122__compressed_pair_elemINS_9allocatorIcEELi1ELb1EE5__getB8ue170006Ev, symObjAddr: 0xC218, symBinAddr: 0x10000DD74, symSize: 0x14 }
  - { offsetInCU: 0x115FC, offset: 0x115FC, size: 0x8, addend: 0x0, symName: __ZNSt3__123__libcpp_numeric_limitsImLb1EE3maxB8ue170006Ev, symObjAddr: 0xC22C, symBinAddr: 0x10000DD88, symSize: 0x8 }
  - { offsetInCU: 0x11610, offset: 0x11610, size: 0x8, addend: 0x0, symName: __ZNKSt3__18ios_base10exceptionsB8ue170006Ev, symObjAddr: 0xC234, symBinAddr: 0x10000DD90, symSize: 0x18 }
  - { offsetInCU: 0x11637, offset: 0x11637, size: 0x8, addend: 0x0, symName: __ZNSt3__112basic_stringIcNS_11char_traitsIcEENS_9allocatorIcEEE13__move_assignB8ue170006ERS5_NS_17integral_constantIbLb1EEE, symObjAddr: 0xC24C, symBinAddr: 0x10000DDA8, symSize: 0xC8 }
  - { offsetInCU: 0x11678, offset: 0x11678, size: 0x8, addend: 0x0, symName: __ZNSt3__116allocator_traitsINS_9allocatorIcEEE10deallocateB8ue170006ERS2_Pcm, symObjAddr: 0xC314, symBinAddr: 0x10000DE70, symSize: 0x34 }
  - { offsetInCU: 0x116BA, offset: 0x116BA, size: 0x8, addend: 0x0, symName: __ZNSt3__112basic_stringIcNS_11char_traitsIcEENS_9allocatorIcEEE7__allocB8ue170006Ev, symObjAddr: 0xC348, symBinAddr: 0x10000DEA4, symSize: 0x24 }
  - { offsetInCU: 0x116DF, offset: 0x116DF, size: 0x8, addend: 0x0, symName: __ZNKSt3__112basic_stringIcNS_11char_traitsIcEENS_9allocatorIcEEE14__get_long_capB8ue170006Ev, symObjAddr: 0xC36C, symBinAddr: 0x10000DEC8, symSize: 0x30 }
  - { offsetInCU: 0x11704, offset: 0x11704, size: 0x8, addend: 0x0, symName: __ZNSt3__112basic_stringIcNS_11char_traitsIcEENS_9allocatorIcEEE19__move_assign_allocB8ue170006ERS5_, symObjAddr: 0xC39C, symBinAddr: 0x10000DEF8, symSize: 0x2C }
  - { offsetInCU: 0x11738, offset: 0x11738, size: 0x8, addend: 0x0, symName: __ZNSt3__19allocatorIcE10deallocateB8ue170006EPcm, symObjAddr: 0xC3C8, symBinAddr: 0x10000DF24, symSize: 0x40 }
  - { offsetInCU: 0x11779, offset: 0x11779, size: 0x8, addend: 0x0, symName: __ZNSt3__117__compressed_pairINS_12basic_stringIcNS_11char_traitsIcEENS_9allocatorIcEEE5__repES5_E6secondB8ue170006Ev, symObjAddr: 0xC408, symBinAddr: 0x10000DF64, symSize: 0x24 }
  - { offsetInCU: 0x1179E, offset: 0x1179E, size: 0x8, addend: 0x0, symName: __ZNSt3__122__compressed_pair_elemINS_9allocatorIcEELi1ELb1EE5__getB8ue170006Ev, symObjAddr: 0xC42C, symBinAddr: 0x10000DF88, symSize: 0x14 }
  - { offsetInCU: 0x117C3, offset: 0x117C3, size: 0x8, addend: 0x0, symName: __ZNSt3__112basic_stringIcNS_11char_traitsIcEENS_9allocatorIcEEE19__move_assign_allocB8ue170006ERS5_NS_17integral_constantIbLb1EEE, symObjAddr: 0xC440, symBinAddr: 0x10000DF9C, symSize: 0x38 }
  - { offsetInCU: 0x11803, offset: 0x11803, size: 0x8, addend: 0x0, symName: __ZNSt3__18__iom_t4IcEC1B8ue170006Ec, symObjAddr: 0xC478, symBinAddr: 0x10000DFD4, symSize: 0x34 }
  - { offsetInCU: 0x1183A, offset: 0x1183A, size: 0x8, addend: 0x0, symName: __ZNSt3__18__iom_t4IcEC2B8ue170006Ec, symObjAddr: 0xC4AC, symBinAddr: 0x10000E008, symSize: 0x20 }
  - { offsetInCU: 0x11871, offset: 0x11871, size: 0x8, addend: 0x0, symName: __ZNSt3__19basic_iosIcNS_11char_traitsIcEEE4fillB8ue170006Ec, symObjAddr: 0xC4CC, symBinAddr: 0x10000E028, symSize: 0x74 }
  - { offsetInCU: 0x118B5, offset: 0x118B5, size: 0x8, addend: 0x0, symName: __ZNKSt3__112basic_stringIcNS_11char_traitsIcEENS_9allocatorIcEEE15__get_long_sizeB8ue170006Ev, symObjAddr: 0xC540, symBinAddr: 0x10000E09C, symSize: 0x28 }
  - { offsetInCU: 0x118DA, offset: 0x118DA, size: 0x8, addend: 0x0, symName: __ZNKSt3__112basic_stringIcNS_11char_traitsIcEENS_9allocatorIcEEE16__get_short_sizeB8ue170006Ev, symObjAddr: 0xC568, symBinAddr: 0x10000E0C4, symSize: 0x34 }
  - { offsetInCU: 0x118FF, offset: 0x118FF, size: 0x8, addend: 0x0, symName: __ZNSt3__115basic_streambufIcNS_11char_traitsIcEEE5sgetcB8ue170006Ev, symObjAddr: 0xC59C, symBinAddr: 0x10000E0F8, symSize: 0x70 }
  - { offsetInCU: 0x11924, offset: 0x11924, size: 0x8, addend: 0x0, symName: __ZNKSt3__15ctypeIcE2isB8ue170006Ejc, symObjAddr: 0xC60C, symBinAddr: 0x10000E168, symSize: 0x7C }
...
